
AVRASM ver. 2.2.8  C:\Users\bsmor\OneDrive\Documentos\GitHub\PROYECTO1_reloj\Proyecto1_reloj\Proyecto1_reloj\main.asm Sat Mar 15 21:50:09 2025

[builtin](2): Including file 'C:/Program Files (x86)\Atmel\Studio\7.0\Packs\atmel\ATmega_DFP\1.7.374\avrasm\inc\m328Pdef.inc'
C:\Users\bsmor\OneDrive\Documentos\GitHub\PROYECTO1_reloj\Proyecto1_reloj\Proyecto1_reloj\main.asm(11): Including file 'C:/Program Files (x86)\Atmel\Studio\7.0\Packs\atmel\ATmega_DFP\1.7.374\avrasm\inc\M328PDEF.inc'
[builtin](2): Including file 'C:/Program Files (x86)\Atmel\Studio\7.0\Packs\atmel\ATmega_DFP\1.7.374\avrasm\inc\m328Pdef.inc'
C:\Users\bsmor\OneDrive\Documentos\GitHub\PROYECTO1_reloj\Proyecto1_reloj\Proyecto1_reloj\main.asm(11): Including file 'C:/Program Files (x86)\Atmel\Studio\7.0\Packs\atmel\ATmega_DFP\1.7.374\avrasm\inc\M328PDEF.inc'
                                 
                                 ;
                                 
                                 ;***** Created: 2011-02-09 12:03 ******* Source: ATmega328P.xml **********
                                 ;*************************************************************************
                                 ;* A P P L I C A T I O N   N O T E   F O R   T H E   A V R   F A M I L Y
                                 ;* 
                                 ;* Number            : AVR000
                                 ;* File Name         : "m328Pdef.inc"
                                 ;* Title             : Register/Bit Definitions for the ATmega328P
                                 ;* Date              : 2011-02-09
                                 ;* Version           : 2.35
                                 ;* Support E-mail    : avr@atmel.com
                                 ;* Target MCU        : ATmega328P
                                 ;* 
                                 ;* DESCRIPTION
                                 ;* When including this file in the assembly program file, all I/O register 
                                 ;* names and I/O register bit names appearing in the data book can be used.
                                 ;* In addition, the six registers forming the three data pointers X, Y and 
                                 ;* Z have been assigned names XL - ZH. Highest RAM address for Internal 
                                 ;* SRAM is also defined 
                                 ;* 
                                 ;* The Register names are represented by their hexadecimal address.
                                 ;* 
                                 ;* The Register Bit names are represented by their bit number (0-7).
                                 ;* 
                                 ;* Please observe the difference in using the bit names with instructions
                                 ;* such as "sbr"/"cbr" (set/clear bit in register) and "sbrs"/"sbrc"
                                 ;* (skip if bit in register set/cleared). The following example illustrates
                                 ;* this:
                                 ;* 
                                 ;* in    r16,PORTB             ;read PORTB latch
                                 ;* sbr   r16,(1<<PB6)+(1<<PB5) ;set PB6 and PB5 (use masks, not bit#)
                                 ;* out   PORTB,r16             ;output to PORTB
                                 ;* 
                                 ;* in    r16,TIFR              ;read the Timer Interrupt Flag Register
                                 ;* sbrc  r16,TOV0              ;test the overflow flag (use bit#)
                                 ;* rjmp  TOV0_is_set           ;jump if set
                                 ;* ...                         ;otherwise do something else
                                 ;*************************************************************************
                                 
                                 #ifndef _M328PDEF_INC_
                                 #define _M328PDEF_INC_
                                 
                                 
                                 #pragma partinc 0
                                 
                                 ; ***** SPECIFY DEVICE ***************************************************
                                 .device ATmega328P
                                 #pragma AVRPART ADMIN PART_NAME ATmega328P
                                 .equ	SIGNATURE_000	= 0x1e
                                 .equ	SIGNATURE_001	= 0x95
                                 .equ	SIGNATURE_002	= 0x0f
                                 
                                 #pragma AVRPART CORE CORE_VERSION V2E
                                 
                                 
                                 ; ***** I/O REGISTER DEFINITIONS *****************************************
                                 ; NOTE:
                                 ; Definitions marked "MEMORY MAPPED"are extended I/O ports
                                 ; and cannot be used with IN/OUT instructions
                                 .equ	UDR0	= 0xc6	; MEMORY MAPPED
                                 .equ	UBRR0L	= 0xc4	; MEMORY MAPPED
                                 .equ	UBRR0H	= 0xc5	; MEMORY MAPPED
                                 .equ	UCSR0C	= 0xc2	; MEMORY MAPPED
                                 .equ	UCSR0B	= 0xc1	; MEMORY MAPPED
                                 .equ	UCSR0A	= 0xc0	; MEMORY MAPPED
                                 .equ	TWAMR	= 0xbd	; MEMORY MAPPED
                                 .equ	TWCR	= 0xbc	; MEMORY MAPPED
                                 .equ	TWDR	= 0xbb	; MEMORY MAPPED
                                 .equ	TWAR	= 0xba	; MEMORY MAPPED
                                 .equ	TWSR	= 0xb9	; MEMORY MAPPED
                                 .equ	TWBR	= 0xb8	; MEMORY MAPPED
                                 .equ	ASSR	= 0xb6	; MEMORY MAPPED
                                 .equ	OCR2B	= 0xb4	; MEMORY MAPPED
                                 .equ	OCR2A	= 0xb3	; MEMORY MAPPED
                                 .equ	TCNT2	= 0xb2	; MEMORY MAPPED
                                 .equ	TCCR2B	= 0xb1	; MEMORY MAPPED
                                 .equ	TCCR2A	= 0xb0	; MEMORY MAPPED
                                 .equ	OCR1BL	= 0x8a	; MEMORY MAPPED
                                 .equ	OCR1BH	= 0x8b	; MEMORY MAPPED
                                 .equ	OCR1AL	= 0x88	; MEMORY MAPPED
                                 .equ	OCR1AH	= 0x89	; MEMORY MAPPED
                                 .equ	ICR1L	= 0x86	; MEMORY MAPPED
                                 .equ	ICR1H	= 0x87	; MEMORY MAPPED
                                 .equ	TCNT1L	= 0x84	; MEMORY MAPPED
                                 .equ	TCNT1H	= 0x85	; MEMORY MAPPED
                                 .equ	TCCR1C	= 0x82	; MEMORY MAPPED
                                 .equ	TCCR1B	= 0x81	; MEMORY MAPPED
                                 .equ	TCCR1A	= 0x80	; MEMORY MAPPED
                                 .equ	DIDR1	= 0x7f	; MEMORY MAPPED
                                 .equ	DIDR0	= 0x7e	; MEMORY MAPPED
                                 .equ	ADMUX	= 0x7c	; MEMORY MAPPED
                                 .equ	ADCSRB	= 0x7b	; MEMORY MAPPED
                                 .equ	ADCSRA	= 0x7a	; MEMORY MAPPED
                                 .equ	ADCH	= 0x79	; MEMORY MAPPED
                                 .equ	ADCL	= 0x78	; MEMORY MAPPED
                                 .equ	TIMSK2	= 0x70	; MEMORY MAPPED
                                 .equ	TIMSK1	= 0x6f	; MEMORY MAPPED
                                 .equ	TIMSK0	= 0x6e	; MEMORY MAPPED
                                 .equ	PCMSK1	= 0x6c	; MEMORY MAPPED
                                 .equ	PCMSK2	= 0x6d	; MEMORY MAPPED
                                 .equ	PCMSK0	= 0x6b	; MEMORY MAPPED
                                 .equ	EICRA	= 0x69	; MEMORY MAPPED
                                 .equ	PCICR	= 0x68	; MEMORY MAPPED
                                 .equ	OSCCAL	= 0x66	; MEMORY MAPPED
                                 .equ	PRR	= 0x64	; MEMORY MAPPED
                                 .equ	CLKPR	= 0x61	; MEMORY MAPPED
                                 .equ	WDTCSR	= 0x60	; MEMORY MAPPED
                                 .equ	SREG	= 0x3f
                                 .equ	SPL	= 0x3d
                                 .equ	SPH	= 0x3e
                                 .equ	SPMCSR	= 0x37
                                 .equ	MCUCR	= 0x35
                                 .equ	MCUSR	= 0x34
                                 .equ	SMCR	= 0x33
                                 .equ	ACSR	= 0x30
                                 .equ	SPDR	= 0x2e
                                 .equ	SPSR	= 0x2d
                                 .equ	SPCR	= 0x2c
                                 .equ	GPIOR2	= 0x2b
                                 .equ	GPIOR1	= 0x2a
                                 .equ	OCR0B	= 0x28
                                 .equ	OCR0A	= 0x27
                                 .equ	TCNT0	= 0x26
                                 .equ	TCCR0B	= 0x25
                                 .equ	TCCR0A	= 0x24
                                 .equ	GTCCR	= 0x23
                                 .equ	EEARH	= 0x22
                                 .equ	EEARL	= 0x21
                                 .equ	EEDR	= 0x20
                                 .equ	EECR	= 0x1f
                                 .equ	GPIOR0	= 0x1e
                                 .equ	EIMSK	= 0x1d
                                 .equ	EIFR	= 0x1c
                                 .equ	PCIFR	= 0x1b
                                 .equ	TIFR2	= 0x17
                                 .equ	TIFR1	= 0x16
                                 .equ	TIFR0	= 0x15
                                 .equ	PORTD	= 0x0b
                                 .equ	DDRD	= 0x0a
                                 .equ	PIND	= 0x09
                                 .equ	PORTC	= 0x08
                                 .equ	DDRC	= 0x07
                                 .equ	PINC	= 0x06
                                 .equ	PORTB	= 0x05
                                 .equ	DDRB	= 0x04
                                 .equ	PINB	= 0x03
                                 
                                 
                                 ; ***** BIT DEFINITIONS **************************************************
                                 
                                 ; ***** USART0 ***********************
                                 ; UDR0 - USART I/O Data Register
                                 .equ	UDR0_0	= 0	; USART I/O Data Register bit 0
                                 .equ	UDR0_1	= 1	; USART I/O Data Register bit 1
                                 .equ	UDR0_2	= 2	; USART I/O Data Register bit 2
                                 .equ	UDR0_3	= 3	; USART I/O Data Register bit 3
                                 .equ	UDR0_4	= 4	; USART I/O Data Register bit 4
                                 .equ	UDR0_5	= 5	; USART I/O Data Register bit 5
                                 .equ	UDR0_6	= 6	; USART I/O Data Register bit 6
                                 .equ	UDR0_7	= 7	; USART I/O Data Register bit 7
                                 
                                 ; UCSR0A - USART Control and Status Register A
                                 .equ	MPCM0	= 0	; Multi-processor Communication Mode
                                 .equ	U2X0	= 1	; Double the USART transmission speed
                                 .equ	UPE0	= 2	; Parity Error
                                 .equ	DOR0	= 3	; Data overRun
                                 .equ	FE0	= 4	; Framing Error
                                 .equ	UDRE0	= 5	; USART Data Register Empty
                                 .equ	TXC0	= 6	; USART Transmitt Complete
                                 .equ	RXC0	= 7	; USART Receive Complete
                                 
                                 ; UCSR0B - USART Control and Status Register B
                                 .equ	TXB80	= 0	; Transmit Data Bit 8
                                 .equ	RXB80	= 1	; Receive Data Bit 8
                                 .equ	UCSZ02	= 2	; Character Size
                                 .equ	TXEN0	= 3	; Transmitter Enable
                                 .equ	RXEN0	= 4	; Receiver Enable
                                 .equ	UDRIE0	= 5	; USART Data register Empty Interrupt Enable
                                 .equ	TXCIE0	= 6	; TX Complete Interrupt Enable
                                 .equ	RXCIE0	= 7	; RX Complete Interrupt Enable
                                 
                                 ; UCSR0C - USART Control and Status Register C
                                 .equ	UCPOL0	= 0	; Clock Polarity
                                 .equ	UCSZ00	= 1	; Character Size
                                 .equ	UCPHA0	= UCSZ00	; For compatibility
                                 .equ	UCSZ01	= 2	; Character Size
                                 .equ	UDORD0	= UCSZ01	; For compatibility
                                 .equ	USBS0	= 3	; Stop Bit Select
                                 .equ	UPM00	= 4	; Parity Mode Bit 0
                                 .equ	UPM01	= 5	; Parity Mode Bit 1
                                 .equ	UMSEL00	= 6	; USART Mode Select
                                 .equ	UMSEL0	= UMSEL00	; For compatibility
                                 .equ	UMSEL01	= 7	; USART Mode Select
                                 .equ	UMSEL1	= UMSEL01	; For compatibility
                                 
                                 ; UBRR0H - USART Baud Rate Register High Byte
                                 .equ	UBRR8	= 0	; USART Baud Rate Register bit 8
                                 .equ	UBRR9	= 1	; USART Baud Rate Register bit 9
                                 .equ	UBRR10	= 2	; USART Baud Rate Register bit 10
                                 .equ	UBRR11	= 3	; USART Baud Rate Register bit 11
                                 
                                 ; UBRR0L - USART Baud Rate Register Low Byte
                                 .equ	_UBRR0	= 0	; USART Baud Rate Register bit 0
                                 .equ	_UBRR1	= 1	; USART Baud Rate Register bit 1
                                 .equ	UBRR2	= 2	; USART Baud Rate Register bit 2
                                 .equ	UBRR3	= 3	; USART Baud Rate Register bit 3
                                 .equ	UBRR4	= 4	; USART Baud Rate Register bit 4
                                 .equ	UBRR5	= 5	; USART Baud Rate Register bit 5
                                 .equ	UBRR6	= 6	; USART Baud Rate Register bit 6
                                 .equ	UBRR7	= 7	; USART Baud Rate Register bit 7
                                 
                                 
                                 ; ***** TWI **************************
                                 ; TWAMR - TWI (Slave) Address Mask Register
                                 .equ	TWAM0	= 1	; 
                                 .equ	TWAMR0	= TWAM0	; For compatibility
                                 .equ	TWAM1	= 2	; 
                                 .equ	TWAMR1	= TWAM1	; For compatibility
                                 .equ	TWAM2	= 3	; 
                                 .equ	TWAMR2	= TWAM2	; For compatibility
                                 .equ	TWAM3	= 4	; 
                                 .equ	TWAMR3	= TWAM3	; For compatibility
                                 .equ	TWAM4	= 5	; 
                                 .equ	TWAMR4	= TWAM4	; For compatibility
                                 .equ	TWAM5	= 6	; 
                                 .equ	TWAMR5	= TWAM5	; For compatibility
                                 .equ	TWAM6	= 7	; 
                                 .equ	TWAMR6	= TWAM6	; For compatibility
                                 
                                 ; TWBR - TWI Bit Rate register
                                 .equ	TWBR0	= 0	; 
                                 .equ	TWBR1	= 1	; 
                                 .equ	TWBR2	= 2	; 
                                 .equ	TWBR3	= 3	; 
                                 .equ	TWBR4	= 4	; 
                                 .equ	TWBR5	= 5	; 
                                 .equ	TWBR6	= 6	; 
                                 .equ	TWBR7	= 7	; 
                                 
                                 ; TWCR - TWI Control Register
                                 .equ	TWIE	= 0	; TWI Interrupt Enable
                                 .equ	TWEN	= 2	; TWI Enable Bit
                                 .equ	TWWC	= 3	; TWI Write Collition Flag
                                 .equ	TWSTO	= 4	; TWI Stop Condition Bit
                                 .equ	TWSTA	= 5	; TWI Start Condition Bit
                                 .equ	TWEA	= 6	; TWI Enable Acknowledge Bit
                                 .equ	TWINT	= 7	; TWI Interrupt Flag
                                 
                                 ; TWSR - TWI Status Register
                                 .equ	TWPS0	= 0	; TWI Prescaler
                                 .equ	TWPS1	= 1	; TWI Prescaler
                                 .equ	TWS3	= 3	; TWI Status
                                 .equ	TWS4	= 4	; TWI Status
                                 .equ	TWS5	= 5	; TWI Status
                                 .equ	TWS6	= 6	; TWI Status
                                 .equ	TWS7	= 7	; TWI Status
                                 
                                 ; TWDR - TWI Data register
                                 .equ	TWD0	= 0	; TWI Data Register Bit 0
                                 .equ	TWD1	= 1	; TWI Data Register Bit 1
                                 .equ	TWD2	= 2	; TWI Data Register Bit 2
                                 .equ	TWD3	= 3	; TWI Data Register Bit 3
                                 .equ	TWD4	= 4	; TWI Data Register Bit 4
                                 .equ	TWD5	= 5	; TWI Data Register Bit 5
                                 .equ	TWD6	= 6	; TWI Data Register Bit 6
                                 .equ	TWD7	= 7	; TWI Data Register Bit 7
                                 
                                 ; TWAR - TWI (Slave) Address register
                                 .equ	TWGCE	= 0	; TWI General Call Recognition Enable Bit
                                 .equ	TWA0	= 1	; TWI (Slave) Address register Bit 0
                                 .equ	TWA1	= 2	; TWI (Slave) Address register Bit 1
                                 .equ	TWA2	= 3	; TWI (Slave) Address register Bit 2
                                 .equ	TWA3	= 4	; TWI (Slave) Address register Bit 3
                                 .equ	TWA4	= 5	; TWI (Slave) Address register Bit 4
                                 .equ	TWA5	= 6	; TWI (Slave) Address register Bit 5
                                 .equ	TWA6	= 7	; TWI (Slave) Address register Bit 6
                                 
                                 
                                 ; ***** TIMER_COUNTER_1 **************
                                 ; TIMSK1 - Timer/Counter Interrupt Mask Register
                                 .equ	TOIE1	= 0	; Timer/Counter1 Overflow Interrupt Enable
                                 .equ	OCIE1A	= 1	; Timer/Counter1 Output CompareA Match Interrupt Enable
                                 .equ	OCIE1B	= 2	; Timer/Counter1 Output CompareB Match Interrupt Enable
                                 .equ	ICIE1	= 5	; Timer/Counter1 Input Capture Interrupt Enable
                                 
                                 ; TIFR1 - Timer/Counter Interrupt Flag register
                                 .equ	TOV1	= 0	; Timer/Counter1 Overflow Flag
                                 .equ	OCF1A	= 1	; Output Compare Flag 1A
                                 .equ	OCF1B	= 2	; Output Compare Flag 1B
                                 .equ	ICF1	= 5	; Input Capture Flag 1
                                 
                                 ; TCCR1A - Timer/Counter1 Control Register A
                                 .equ	WGM10	= 0	; Waveform Generation Mode
                                 .equ	WGM11	= 1	; Waveform Generation Mode
                                 .equ	COM1B0	= 4	; Compare Output Mode 1B, bit 0
                                 .equ	COM1B1	= 5	; Compare Output Mode 1B, bit 1
                                 .equ	COM1A0	= 6	; Comparet Ouput Mode 1A, bit 0
                                 .equ	COM1A1	= 7	; Compare Output Mode 1A, bit 1
                                 
                                 ; TCCR1B - Timer/Counter1 Control Register B
                                 .equ	CS10	= 0	; Prescaler source of Timer/Counter 1
                                 .equ	CS11	= 1	; Prescaler source of Timer/Counter 1
                                 .equ	CS12	= 2	; Prescaler source of Timer/Counter 1
                                 .equ	WGM12	= 3	; Waveform Generation Mode
                                 .equ	WGM13	= 4	; Waveform Generation Mode
                                 .equ	ICES1	= 6	; Input Capture 1 Edge Select
                                 .equ	ICNC1	= 7	; Input Capture 1 Noise Canceler
                                 
                                 ; TCCR1C - Timer/Counter1 Control Register C
                                 .equ	FOC1B	= 6	; 
                                 .equ	FOC1A	= 7	; 
                                 
                                 ; GTCCR - General Timer/Counter Control Register
                                 .equ	PSRSYNC	= 0	; Prescaler Reset Timer/Counter1 and Timer/Counter0
                                 .equ	TSM	= 7	; Timer/Counter Synchronization Mode
                                 
                                 
                                 ; ***** TIMER_COUNTER_2 **************
                                 ; TIMSK2 - Timer/Counter Interrupt Mask register
                                 .equ	TOIE2	= 0	; Timer/Counter2 Overflow Interrupt Enable
                                 .equ	TOIE2A	= TOIE2	; For compatibility
                                 .equ	OCIE2A	= 1	; Timer/Counter2 Output Compare Match A Interrupt Enable
                                 .equ	OCIE2B	= 2	; Timer/Counter2 Output Compare Match B Interrupt Enable
                                 
                                 ; TIFR2 - Timer/Counter Interrupt Flag Register
                                 .equ	TOV2	= 0	; Timer/Counter2 Overflow Flag
                                 .equ	OCF2A	= 1	; Output Compare Flag 2A
                                 .equ	OCF2B	= 2	; Output Compare Flag 2B
                                 
                                 ; TCCR2A - Timer/Counter2 Control Register A
                                 .equ	WGM20	= 0	; Waveform Genration Mode
                                 .equ	WGM21	= 1	; Waveform Genration Mode
                                 .equ	COM2B0	= 4	; Compare Output Mode bit 0
                                 .equ	COM2B1	= 5	; Compare Output Mode bit 1
                                 .equ	COM2A0	= 6	; Compare Output Mode bit 1
                                 .equ	COM2A1	= 7	; Compare Output Mode bit 1
                                 
                                 ; TCCR2B - Timer/Counter2 Control Register B
                                 .equ	CS20	= 0	; Clock Select bit 0
                                 .equ	CS21	= 1	; Clock Select bit 1
                                 .equ	CS22	= 2	; Clock Select bit 2
                                 .equ	WGM22	= 3	; Waveform Generation Mode
                                 .equ	FOC2B	= 6	; Force Output Compare B
                                 .equ	FOC2A	= 7	; Force Output Compare A
                                 
                                 ; TCNT2 - Timer/Counter2
                                 .equ	TCNT2_0	= 0	; Timer/Counter 2 bit 0
                                 .equ	TCNT2_1	= 1	; Timer/Counter 2 bit 1
                                 .equ	TCNT2_2	= 2	; Timer/Counter 2 bit 2
                                 .equ	TCNT2_3	= 3	; Timer/Counter 2 bit 3
                                 .equ	TCNT2_4	= 4	; Timer/Counter 2 bit 4
                                 .equ	TCNT2_5	= 5	; Timer/Counter 2 bit 5
                                 .equ	TCNT2_6	= 6	; Timer/Counter 2 bit 6
                                 .equ	TCNT2_7	= 7	; Timer/Counter 2 bit 7
                                 
                                 ; OCR2A - Timer/Counter2 Output Compare Register A
                                 .equ	OCR2A_0	= 0	; Timer/Counter2 Output Compare Register Bit 0
                                 .equ	OCR2A_1	= 1	; Timer/Counter2 Output Compare Register Bit 1
                                 .equ	OCR2A_2	= 2	; Timer/Counter2 Output Compare Register Bit 2
                                 .equ	OCR2A_3	= 3	; Timer/Counter2 Output Compare Register Bit 3
                                 .equ	OCR2A_4	= 4	; Timer/Counter2 Output Compare Register Bit 4
                                 .equ	OCR2A_5	= 5	; Timer/Counter2 Output Compare Register Bit 5
                                 .equ	OCR2A_6	= 6	; Timer/Counter2 Output Compare Register Bit 6
                                 .equ	OCR2A_7	= 7	; Timer/Counter2 Output Compare Register Bit 7
                                 
                                 ; OCR2B - Timer/Counter2 Output Compare Register B
                                 .equ	OCR2B_0	= 0	; Timer/Counter2 Output Compare Register Bit 0
                                 .equ	OCR2B_1	= 1	; Timer/Counter2 Output Compare Register Bit 1
                                 .equ	OCR2B_2	= 2	; Timer/Counter2 Output Compare Register Bit 2
                                 .equ	OCR2B_3	= 3	; Timer/Counter2 Output Compare Register Bit 3
                                 .equ	OCR2B_4	= 4	; Timer/Counter2 Output Compare Register Bit 4
                                 .equ	OCR2B_5	= 5	; Timer/Counter2 Output Compare Register Bit 5
                                 .equ	OCR2B_6	= 6	; Timer/Counter2 Output Compare Register Bit 6
                                 .equ	OCR2B_7	= 7	; Timer/Counter2 Output Compare Register Bit 7
                                 
                                 ; ASSR - Asynchronous Status Register
                                 .equ	TCR2BUB	= 0	; Timer/Counter Control Register2 Update Busy
                                 .equ	TCR2AUB	= 1	; Timer/Counter Control Register2 Update Busy
                                 .equ	OCR2BUB	= 2	; Output Compare Register 2 Update Busy
                                 .equ	OCR2AUB	= 3	; Output Compare Register2 Update Busy
                                 .equ	TCN2UB	= 4	; Timer/Counter2 Update Busy
                                 .equ	AS2	= 5	; Asynchronous Timer/Counter2
                                 .equ	EXCLK	= 6	; Enable External Clock Input
                                 
                                 ; GTCCR - General Timer Counter Control register
                                 .equ	PSRASY	= 1	; Prescaler Reset Timer/Counter2
                                 .equ	PSR2	= PSRASY	; For compatibility
                                 ;.equ	TSM	= 7	; Timer/Counter Synchronization Mode
                                 
                                 
                                 ; ***** AD_CONVERTER *****************
                                 ; ADMUX - The ADC multiplexer Selection Register
                                 .equ	MUX0	= 0	; Analog Channel and Gain Selection Bits
                                 .equ	MUX1	= 1	; Analog Channel and Gain Selection Bits
                                 .equ	MUX2	= 2	; Analog Channel and Gain Selection Bits
                                 .equ	MUX3	= 3	; Analog Channel and Gain Selection Bits
                                 .equ	ADLAR	= 5	; Left Adjust Result
                                 .equ	REFS0	= 6	; Reference Selection Bit 0
                                 .equ	REFS1	= 7	; Reference Selection Bit 1
                                 
                                 ; ADCSRA - The ADC Control and Status register A
                                 .equ	ADPS0	= 0	; ADC  Prescaler Select Bits
                                 .equ	ADPS1	= 1	; ADC  Prescaler Select Bits
                                 .equ	ADPS2	= 2	; ADC  Prescaler Select Bits
                                 .equ	ADIE	= 3	; ADC Interrupt Enable
                                 .equ	ADIF	= 4	; ADC Interrupt Flag
                                 .equ	ADATE	= 5	; ADC  Auto Trigger Enable
                                 .equ	ADSC	= 6	; ADC Start Conversion
                                 .equ	ADEN	= 7	; ADC Enable
                                 
                                 ; ADCSRB - The ADC Control and Status register B
                                 .equ	ADTS0	= 0	; ADC Auto Trigger Source bit 0
                                 .equ	ADTS1	= 1	; ADC Auto Trigger Source bit 1
                                 .equ	ADTS2	= 2	; ADC Auto Trigger Source bit 2
                                 .equ	ACME	= 6	; 
                                 
                                 ; ADCH - ADC Data Register High Byte
                                 .equ	ADCH0	= 0	; ADC Data Register High Byte Bit 0
                                 .equ	ADCH1	= 1	; ADC Data Register High Byte Bit 1
                                 .equ	ADCH2	= 2	; ADC Data Register High Byte Bit 2
                                 .equ	ADCH3	= 3	; ADC Data Register High Byte Bit 3
                                 .equ	ADCH4	= 4	; ADC Data Register High Byte Bit 4
                                 .equ	ADCH5	= 5	; ADC Data Register High Byte Bit 5
                                 .equ	ADCH6	= 6	; ADC Data Register High Byte Bit 6
                                 .equ	ADCH7	= 7	; ADC Data Register High Byte Bit 7
                                 
                                 ; ADCL - ADC Data Register Low Byte
                                 .equ	ADCL0	= 0	; ADC Data Register Low Byte Bit 0
                                 .equ	ADCL1	= 1	; ADC Data Register Low Byte Bit 1
                                 .equ	ADCL2	= 2	; ADC Data Register Low Byte Bit 2
                                 .equ	ADCL3	= 3	; ADC Data Register Low Byte Bit 3
                                 .equ	ADCL4	= 4	; ADC Data Register Low Byte Bit 4
                                 .equ	ADCL5	= 5	; ADC Data Register Low Byte Bit 5
                                 .equ	ADCL6	= 6	; ADC Data Register Low Byte Bit 6
                                 .equ	ADCL7	= 7	; ADC Data Register Low Byte Bit 7
                                 
                                 ; DIDR0 - Digital Input Disable Register
                                 .equ	ADC0D	= 0	; 
                                 .equ	ADC1D	= 1	; 
                                 .equ	ADC2D	= 2	; 
                                 .equ	ADC3D	= 3	; 
                                 .equ	ADC4D	= 4	; 
                                 .equ	ADC5D	= 5	; 
                                 
                                 
                                 ; ***** ANALOG_COMPARATOR ************
                                 ; ACSR - Analog Comparator Control And Status Register
                                 .equ	ACIS0	= 0	; Analog Comparator Interrupt Mode Select bit 0
                                 .equ	ACIS1	= 1	; Analog Comparator Interrupt Mode Select bit 1
                                 .equ	ACIC	= 2	; Analog Comparator Input Capture Enable
                                 .equ	ACIE	= 3	; Analog Comparator Interrupt Enable
                                 .equ	ACI	= 4	; Analog Comparator Interrupt Flag
                                 .equ	ACO	= 5	; Analog Compare Output
                                 .equ	ACBG	= 6	; Analog Comparator Bandgap Select
                                 .equ	ACD	= 7	; Analog Comparator Disable
                                 
                                 ; DIDR1 - Digital Input Disable Register 1
                                 .equ	AIN0D	= 0	; AIN0 Digital Input Disable
                                 .equ	AIN1D	= 1	; AIN1 Digital Input Disable
                                 
                                 
                                 ; ***** PORTB ************************
                                 ; PORTB - Port B Data Register
                                 .equ	PORTB0	= 0	; Port B Data Register bit 0
                                 .equ	PB0	= 0	; For compatibility
                                 .equ	PORTB1	= 1	; Port B Data Register bit 1
                                 .equ	PB1	= 1	; For compatibility
                                 .equ	PORTB2	= 2	; Port B Data Register bit 2
                                 .equ	PB2	= 2	; For compatibility
                                 .equ	PORTB3	= 3	; Port B Data Register bit 3
                                 .equ	PB3	= 3	; For compatibility
                                 .equ	PORTB4	= 4	; Port B Data Register bit 4
                                 .equ	PB4	= 4	; For compatibility
                                 .equ	PORTB5	= 5	; Port B Data Register bit 5
                                 .equ	PB5	= 5	; For compatibility
                                 .equ	PORTB6	= 6	; Port B Data Register bit 6
                                 .equ	PB6	= 6	; For compatibility
                                 .equ	PORTB7	= 7	; Port B Data Register bit 7
                                 .equ	PB7	= 7	; For compatibility
                                 
                                 ; DDRB - Port B Data Direction Register
                                 .equ	DDB0	= 0	; Port B Data Direction Register bit 0
                                 .equ	DDB1	= 1	; Port B Data Direction Register bit 1
                                 .equ	DDB2	= 2	; Port B Data Direction Register bit 2
                                 .equ	DDB3	= 3	; Port B Data Direction Register bit 3
                                 .equ	DDB4	= 4	; Port B Data Direction Register bit 4
                                 .equ	DDB5	= 5	; Port B Data Direction Register bit 5
                                 .equ	DDB6	= 6	; Port B Data Direction Register bit 6
                                 .equ	DDB7	= 7	; Port B Data Direction Register bit 7
                                 
                                 ; PINB - Port B Input Pins
                                 .equ	PINB0	= 0	; Port B Input Pins bit 0
                                 .equ	PINB1	= 1	; Port B Input Pins bit 1
                                 .equ	PINB2	= 2	; Port B Input Pins bit 2
                                 .equ	PINB3	= 3	; Port B Input Pins bit 3
                                 .equ	PINB4	= 4	; Port B Input Pins bit 4
                                 .equ	PINB5	= 5	; Port B Input Pins bit 5
                                 .equ	PINB6	= 6	; Port B Input Pins bit 6
                                 .equ	PINB7	= 7	; Port B Input Pins bit 7
                                 
                                 
                                 ; ***** PORTC ************************
                                 ; PORTC - Port C Data Register
                                 .equ	PORTC0	= 0	; Port C Data Register bit 0
                                 .equ	PC0	= 0	; For compatibility
                                 .equ	PORTC1	= 1	; Port C Data Register bit 1
                                 .equ	PC1	= 1	; For compatibility
                                 .equ	PORTC2	= 2	; Port C Data Register bit 2
                                 .equ	PC2	= 2	; For compatibility
                                 .equ	PORTC3	= 3	; Port C Data Register bit 3
                                 .equ	PC3	= 3	; For compatibility
                                 .equ	PORTC4	= 4	; Port C Data Register bit 4
                                 .equ	PC4	= 4	; For compatibility
                                 .equ	PORTC5	= 5	; Port C Data Register bit 5
                                 .equ	PC5	= 5	; For compatibility
                                 .equ	PORTC6	= 6	; Port C Data Register bit 6
                                 .equ	PC6	= 6	; For compatibility
                                 
                                 ; DDRC - Port C Data Direction Register
                                 .equ	DDC0	= 0	; Port C Data Direction Register bit 0
                                 .equ	DDC1	= 1	; Port C Data Direction Register bit 1
                                 .equ	DDC2	= 2	; Port C Data Direction Register bit 2
                                 .equ	DDC3	= 3	; Port C Data Direction Register bit 3
                                 .equ	DDC4	= 4	; Port C Data Direction Register bit 4
                                 .equ	DDC5	= 5	; Port C Data Direction Register bit 5
                                 .equ	DDC6	= 6	; Port C Data Direction Register bit 6
                                 
                                 ; PINC - Port C Input Pins
                                 .equ	PINC0	= 0	; Port C Input Pins bit 0
                                 .equ	PINC1	= 1	; Port C Input Pins bit 1
                                 .equ	PINC2	= 2	; Port C Input Pins bit 2
                                 .equ	PINC3	= 3	; Port C Input Pins bit 3
                                 .equ	PINC4	= 4	; Port C Input Pins bit 4
                                 .equ	PINC5	= 5	; Port C Input Pins bit 5
                                 .equ	PINC6	= 6	; Port C Input Pins bit 6
                                 
                                 
                                 ; ***** PORTD ************************
                                 ; PORTD - Port D Data Register
                                 .equ	PORTD0	= 0	; Port D Data Register bit 0
                                 .equ	PD0	= 0	; For compatibility
                                 .equ	PORTD1	= 1	; Port D Data Register bit 1
                                 .equ	PD1	= 1	; For compatibility
                                 .equ	PORTD2	= 2	; Port D Data Register bit 2
                                 .equ	PD2	= 2	; For compatibility
                                 .equ	PORTD3	= 3	; Port D Data Register bit 3
                                 .equ	PD3	= 3	; For compatibility
                                 .equ	PORTD4	= 4	; Port D Data Register bit 4
                                 .equ	PD4	= 4	; For compatibility
                                 .equ	PORTD5	= 5	; Port D Data Register bit 5
                                 .equ	PD5	= 5	; For compatibility
                                 .equ	PORTD6	= 6	; Port D Data Register bit 6
                                 .equ	PD6	= 6	; For compatibility
                                 .equ	PORTD7	= 7	; Port D Data Register bit 7
                                 .equ	PD7	= 7	; For compatibility
                                 
                                 ; DDRD - Port D Data Direction Register
                                 .equ	DDD0	= 0	; Port D Data Direction Register bit 0
                                 .equ	DDD1	= 1	; Port D Data Direction Register bit 1
                                 .equ	DDD2	= 2	; Port D Data Direction Register bit 2
                                 .equ	DDD3	= 3	; Port D Data Direction Register bit 3
                                 .equ	DDD4	= 4	; Port D Data Direction Register bit 4
                                 .equ	DDD5	= 5	; Port D Data Direction Register bit 5
                                 .equ	DDD6	= 6	; Port D Data Direction Register bit 6
                                 .equ	DDD7	= 7	; Port D Data Direction Register bit 7
                                 
                                 ; PIND - Port D Input Pins
                                 .equ	PIND0	= 0	; Port D Input Pins bit 0
                                 .equ	PIND1	= 1	; Port D Input Pins bit 1
                                 .equ	PIND2	= 2	; Port D Input Pins bit 2
                                 .equ	PIND3	= 3	; Port D Input Pins bit 3
                                 .equ	PIND4	= 4	; Port D Input Pins bit 4
                                 .equ	PIND5	= 5	; Port D Input Pins bit 5
                                 .equ	PIND6	= 6	; Port D Input Pins bit 6
                                 .equ	PIND7	= 7	; Port D Input Pins bit 7
                                 
                                 
                                 ; ***** TIMER_COUNTER_0 **************
                                 ; TIMSK0 - Timer/Counter0 Interrupt Mask Register
                                 .equ	TOIE0	= 0	; Timer/Counter0 Overflow Interrupt Enable
                                 .equ	OCIE0A	= 1	; Timer/Counter0 Output Compare Match A Interrupt Enable
                                 .equ	OCIE0B	= 2	; Timer/Counter0 Output Compare Match B Interrupt Enable
                                 
                                 ; TIFR0 - Timer/Counter0 Interrupt Flag register
                                 .equ	TOV0	= 0	; Timer/Counter0 Overflow Flag
                                 .equ	OCF0A	= 1	; Timer/Counter0 Output Compare Flag 0A
                                 .equ	OCF0B	= 2	; Timer/Counter0 Output Compare Flag 0B
                                 
                                 ; TCCR0A - Timer/Counter  Control Register A
                                 .equ	WGM00	= 0	; Waveform Generation Mode
                                 .equ	WGM01	= 1	; Waveform Generation Mode
                                 .equ	COM0B0	= 4	; Compare Output Mode, Fast PWm
                                 .equ	COM0B1	= 5	; Compare Output Mode, Fast PWm
                                 .equ	COM0A0	= 6	; Compare Output Mode, Phase Correct PWM Mode
                                 .equ	COM0A1	= 7	; Compare Output Mode, Phase Correct PWM Mode
                                 
                                 ; TCCR0B - Timer/Counter Control Register B
                                 .equ	CS00	= 0	; Clock Select
                                 .equ	CS01	= 1	; Clock Select
                                 .equ	CS02	= 2	; Clock Select
                                 .equ	WGM02	= 3	; 
                                 .equ	FOC0B	= 6	; Force Output Compare B
                                 .equ	FOC0A	= 7	; Force Output Compare A
                                 
                                 ; TCNT0 - Timer/Counter0
                                 .equ	TCNT0_0	= 0	; 
                                 .equ	TCNT0_1	= 1	; 
                                 .equ	TCNT0_2	= 2	; 
                                 .equ	TCNT0_3	= 3	; 
                                 .equ	TCNT0_4	= 4	; 
                                 .equ	TCNT0_5	= 5	; 
                                 .equ	TCNT0_6	= 6	; 
                                 .equ	TCNT0_7	= 7	; 
                                 
                                 ; OCR0A - Timer/Counter0 Output Compare Register
                                 .equ	OCR0A_0	= 0	; 
                                 .equ	OCR0A_1	= 1	; 
                                 .equ	OCR0A_2	= 2	; 
                                 .equ	OCR0A_3	= 3	; 
                                 .equ	OCR0A_4	= 4	; 
                                 .equ	OCR0A_5	= 5	; 
                                 .equ	OCR0A_6	= 6	; 
                                 .equ	OCR0A_7	= 7	; 
                                 
                                 ; OCR0B - Timer/Counter0 Output Compare Register
                                 .equ	OCR0B_0	= 0	; 
                                 .equ	OCR0B_1	= 1	; 
                                 .equ	OCR0B_2	= 2	; 
                                 .equ	OCR0B_3	= 3	; 
                                 .equ	OCR0B_4	= 4	; 
                                 .equ	OCR0B_5	= 5	; 
                                 .equ	OCR0B_6	= 6	; 
                                 .equ	OCR0B_7	= 7	; 
                                 
                                 ; GTCCR - General Timer/Counter Control Register
                                 ;.equ	PSRSYNC	= 0	; Prescaler Reset Timer/Counter1 and Timer/Counter0
                                 .equ	PSR10	= PSRSYNC	; For compatibility
                                 ;.equ	TSM	= 7	; Timer/Counter Synchronization Mode
                                 
                                 
                                 ; ***** EXTERNAL_INTERRUPT ***********
                                 ; EICRA - External Interrupt Control Register
                                 .equ	ISC00	= 0	; External Interrupt Sense Control 0 Bit 0
                                 .equ	ISC01	= 1	; External Interrupt Sense Control 0 Bit 1
                                 .equ	ISC10	= 2	; External Interrupt Sense Control 1 Bit 0
                                 .equ	ISC11	= 3	; External Interrupt Sense Control 1 Bit 1
                                 
                                 ; EIMSK - External Interrupt Mask Register
                                 .equ	INT0	= 0	; External Interrupt Request 0 Enable
                                 .equ	INT1	= 1	; External Interrupt Request 1 Enable
                                 
                                 ; EIFR - External Interrupt Flag Register
                                 .equ	INTF0	= 0	; External Interrupt Flag 0
                                 .equ	INTF1	= 1	; External Interrupt Flag 1
                                 
                                 ; PCICR - Pin Change Interrupt Control Register
                                 .equ	PCIE0	= 0	; Pin Change Interrupt Enable 0
                                 .equ	PCIE1	= 1	; Pin Change Interrupt Enable 1
                                 .equ	PCIE2	= 2	; Pin Change Interrupt Enable 2
                                 
                                 ; PCMSK2 - Pin Change Mask Register 2
                                 .equ	PCINT16	= 0	; Pin Change Enable Mask 16
                                 .equ	PCINT17	= 1	; Pin Change Enable Mask 17
                                 .equ	PCINT18	= 2	; Pin Change Enable Mask 18
                                 .equ	PCINT19	= 3	; Pin Change Enable Mask 19
                                 .equ	PCINT20	= 4	; Pin Change Enable Mask 20
                                 .equ	PCINT21	= 5	; Pin Change Enable Mask 21
                                 .equ	PCINT22	= 6	; Pin Change Enable Mask 22
                                 .equ	PCINT23	= 7	; Pin Change Enable Mask 23
                                 
                                 ; PCMSK1 - Pin Change Mask Register 1
                                 .equ	PCINT8	= 0	; Pin Change Enable Mask 8
                                 .equ	PCINT9	= 1	; Pin Change Enable Mask 9
                                 .equ	PCINT10	= 2	; Pin Change Enable Mask 10
                                 .equ	PCINT11	= 3	; Pin Change Enable Mask 11
                                 .equ	PCINT12	= 4	; Pin Change Enable Mask 12
                                 .equ	PCINT13	= 5	; Pin Change Enable Mask 13
                                 .equ	PCINT14	= 6	; Pin Change Enable Mask 14
                                 
                                 ; PCMSK0 - Pin Change Mask Register 0
                                 .equ	PCINT0	= 0	; Pin Change Enable Mask 0
                                 .equ	PCINT1	= 1	; Pin Change Enable Mask 1
                                 .equ	PCINT2	= 2	; Pin Change Enable Mask 2
                                 .equ	PCINT3	= 3	; Pin Change Enable Mask 3
                                 .equ	PCINT4	= 4	; Pin Change Enable Mask 4
                                 .equ	PCINT5	= 5	; Pin Change Enable Mask 5
                                 .equ	PCINT6	= 6	; Pin Change Enable Mask 6
                                 .equ	PCINT7	= 7	; Pin Change Enable Mask 7
                                 
                                 ; PCIFR - Pin Change Interrupt Flag Register
                                 .equ	PCIF0	= 0	; Pin Change Interrupt Flag 0
                                 .equ	PCIF1	= 1	; Pin Change Interrupt Flag 1
                                 .equ	PCIF2	= 2	; Pin Change Interrupt Flag 2
                                 
                                 
                                 ; ***** SPI **************************
                                 ; SPDR - SPI Data Register
                                 .equ	SPDR0	= 0	; SPI Data Register bit 0
                                 .equ	SPDR1	= 1	; SPI Data Register bit 1
                                 .equ	SPDR2	= 2	; SPI Data Register bit 2
                                 .equ	SPDR3	= 3	; SPI Data Register bit 3
                                 .equ	SPDR4	= 4	; SPI Data Register bit 4
                                 .equ	SPDR5	= 5	; SPI Data Register bit 5
                                 .equ	SPDR6	= 6	; SPI Data Register bit 6
                                 .equ	SPDR7	= 7	; SPI Data Register bit 7
                                 
                                 ; SPSR - SPI Status Register
                                 .equ	SPI2X	= 0	; Double SPI Speed Bit
                                 .equ	WCOL	= 6	; Write Collision Flag
                                 .equ	SPIF	= 7	; SPI Interrupt Flag
                                 
                                 ; SPCR - SPI Control Register
                                 .equ	SPR0	= 0	; SPI Clock Rate Select 0
                                 .equ	SPR1	= 1	; SPI Clock Rate Select 1
                                 .equ	CPHA	= 2	; Clock Phase
                                 .equ	CPOL	= 3	; Clock polarity
                                 .equ	MSTR	= 4	; Master/Slave Select
                                 .equ	DORD	= 5	; Data Order
                                 .equ	SPE	= 6	; SPI Enable
                                 .equ	SPIE	= 7	; SPI Interrupt Enable
                                 
                                 
                                 ; ***** WATCHDOG *********************
                                 ; WDTCSR - Watchdog Timer Control Register
                                 .equ	WDP0	= 0	; Watch Dog Timer Prescaler bit 0
                                 .equ	WDP1	= 1	; Watch Dog Timer Prescaler bit 1
                                 .equ	WDP2	= 2	; Watch Dog Timer Prescaler bit 2
                                 .equ	WDE	= 3	; Watch Dog Enable
                                 .equ	WDCE	= 4	; Watchdog Change Enable
                                 .equ	WDP3	= 5	; Watchdog Timer Prescaler Bit 3
                                 .equ	WDIE	= 6	; Watchdog Timeout Interrupt Enable
                                 .equ	WDIF	= 7	; Watchdog Timeout Interrupt Flag
                                 
                                 
                                 ; ***** CPU **************************
                                 ; SREG - Status Register
                                 .equ	SREG_C	= 0	; Carry Flag
                                 .equ	SREG_Z	= 1	; Zero Flag
                                 .equ	SREG_N	= 2	; Negative Flag
                                 .equ	SREG_V	= 3	; Two's Complement Overflow Flag
                                 .equ	SREG_S	= 4	; Sign Bit
                                 .equ	SREG_H	= 5	; Half Carry Flag
                                 .equ	SREG_T	= 6	; Bit Copy Storage
                                 .equ	SREG_I	= 7	; Global Interrupt Enable
                                 
                                 ; OSCCAL - Oscillator Calibration Value
                                 .equ	CAL0	= 0	; Oscillator Calibration Value Bit0
                                 .equ	CAL1	= 1	; Oscillator Calibration Value Bit1
                                 .equ	CAL2	= 2	; Oscillator Calibration Value Bit2
                                 .equ	CAL3	= 3	; Oscillator Calibration Value Bit3
                                 .equ	CAL4	= 4	; Oscillator Calibration Value Bit4
                                 .equ	CAL5	= 5	; Oscillator Calibration Value Bit5
                                 .equ	CAL6	= 6	; Oscillator Calibration Value Bit6
                                 .equ	CAL7	= 7	; Oscillator Calibration Value Bit7
                                 
                                 ; CLKPR - Clock Prescale Register
                                 .equ	CLKPS0	= 0	; Clock Prescaler Select Bit 0
                                 .equ	CLKPS1	= 1	; Clock Prescaler Select Bit 1
                                 .equ	CLKPS2	= 2	; Clock Prescaler Select Bit 2
                                 .equ	CLKPS3	= 3	; Clock Prescaler Select Bit 3
                                 .equ	CLKPCE	= 7	; Clock Prescaler Change Enable
                                 
                                 ; SPMCSR - Store Program Memory Control and Status Register
                                 .equ    SELFPRGEN = 0; Added for backwards compatibility
                                 .equ	SPMEN	= 0	; Store Program Memory
                                 .equ	PGERS	= 1	; Page Erase
                                 .equ	PGWRT	= 2	; Page Write
                                 .equ	BLBSET	= 3	; Boot Lock Bit Set
                                 .equ	RWWSRE	= 4	; Read-While-Write section read enable
                                 .equ    SIGRD   = 5 ; Signature Row Read
                                 .equ	RWWSB	= 6	; Read-While-Write Section Busy
                                 .equ	SPMIE	= 7	; SPM Interrupt Enable
                                 
                                 ; MCUCR - MCU Control Register
                                 .equ	IVCE	= 0	; 
                                 .equ	IVSEL	= 1	; 
                                 .equ	PUD	= 4	; 
                                 .equ	BODSE	= 5	; BOD Sleep Enable
                                 .equ	BODS	= 6	; BOD Sleep
                                 
                                 ; MCUSR - MCU Status Register
                                 .equ	PORF	= 0	; Power-on reset flag
                                 .equ	EXTRF	= 1	; External Reset Flag
                                 .equ	EXTREF	= EXTRF	; For compatibility
                                 .equ	BORF	= 2	; Brown-out Reset Flag
                                 .equ	WDRF	= 3	; Watchdog Reset Flag
                                 
                                 ; SMCR - Sleep Mode Control Register
                                 .equ	SE	= 0	; Sleep Enable
                                 .equ	SM0	= 1	; Sleep Mode Select Bit 0
                                 .equ	SM1	= 2	; Sleep Mode Select Bit 1
                                 .equ	SM2	= 3	; Sleep Mode Select Bit 2
                                 
                                 ; GPIOR2 - General Purpose I/O Register 2
                                 .equ	GPIOR20	= 0	; 
                                 .equ	GPIOR21	= 1	; 
                                 .equ	GPIOR22	= 2	; 
                                 .equ	GPIOR23	= 3	; 
                                 .equ	GPIOR24	= 4	; 
                                 .equ	GPIOR25	= 5	; 
                                 .equ	GPIOR26	= 6	; 
                                 .equ	GPIOR27	= 7	; 
                                 
                                 ; GPIOR1 - General Purpose I/O Register 1
                                 .equ	GPIOR10	= 0	; 
                                 .equ	GPIOR11	= 1	; 
                                 .equ	GPIOR12	= 2	; 
                                 .equ	GPIOR13	= 3	; 
                                 .equ	GPIOR14	= 4	; 
                                 .equ	GPIOR15	= 5	; 
                                 .equ	GPIOR16	= 6	; 
                                 .equ	GPIOR17	= 7	; 
                                 
                                 ; GPIOR0 - General Purpose I/O Register 0
                                 .equ	GPIOR00	= 0	; 
                                 .equ	GPIOR01	= 1	; 
                                 .equ	GPIOR02	= 2	; 
                                 .equ	GPIOR03	= 3	; 
                                 .equ	GPIOR04	= 4	; 
                                 .equ	GPIOR05	= 5	; 
                                 .equ	GPIOR06	= 6	; 
                                 .equ	GPIOR07	= 7	; 
                                 
                                 ; PRR - Power Reduction Register
                                 .equ	PRADC	= 0	; Power Reduction ADC
                                 .equ	PRUSART0	= 1	; Power Reduction USART
                                 .equ	PRSPI	= 2	; Power Reduction Serial Peripheral Interface
                                 .equ	PRTIM1	= 3	; Power Reduction Timer/Counter1
                                 .equ	PRTIM0	= 5	; Power Reduction Timer/Counter0
                                 .equ	PRTIM2	= 6	; Power Reduction Timer/Counter2
                                 .equ	PRTWI	= 7	; Power Reduction TWI
                                 
                                 
                                 ; ***** EEPROM ***********************
                                 ; EEARL - EEPROM Address Register Low Byte
                                 .equ	EEAR0	= 0	; EEPROM Read/Write Access Bit 0
                                 .equ	EEAR1	= 1	; EEPROM Read/Write Access Bit 1
                                 .equ	EEAR2	= 2	; EEPROM Read/Write Access Bit 2
                                 .equ	EEAR3	= 3	; EEPROM Read/Write Access Bit 3
                                 .equ	EEAR4	= 4	; EEPROM Read/Write Access Bit 4
                                 .equ	EEAR5	= 5	; EEPROM Read/Write Access Bit 5
                                 .equ	EEAR6	= 6	; EEPROM Read/Write Access Bit 6
                                 .equ	EEAR7	= 7	; EEPROM Read/Write Access Bit 7
                                 
                                 ; EEARH - EEPROM Address Register High Byte
                                 .equ	EEAR8	= 0	; EEPROM Read/Write Access Bit 8
                                 .equ	EEAR9	= 1	; EEPROM Read/Write Access Bit 9
                                 
                                 ; EEDR - EEPROM Data Register
                                 .equ	EEDR0	= 0	; EEPROM Data Register bit 0
                                 .equ	EEDR1	= 1	; EEPROM Data Register bit 1
                                 .equ	EEDR2	= 2	; EEPROM Data Register bit 2
                                 .equ	EEDR3	= 3	; EEPROM Data Register bit 3
                                 .equ	EEDR4	= 4	; EEPROM Data Register bit 4
                                 .equ	EEDR5	= 5	; EEPROM Data Register bit 5
                                 .equ	EEDR6	= 6	; EEPROM Data Register bit 6
                                 .equ	EEDR7	= 7	; EEPROM Data Register bit 7
                                 
                                 ; EECR - EEPROM Control Register
                                 .equ	EERE	= 0	; EEPROM Read Enable
                                 .equ	EEPE	= 1	; EEPROM Write Enable
                                 .equ	EEMPE	= 2	; EEPROM Master Write Enable
                                 .equ	EERIE	= 3	; EEPROM Ready Interrupt Enable
                                 .equ	EEPM0	= 4	; EEPROM Programming Mode Bit 0
                                 .equ	EEPM1	= 5	; EEPROM Programming Mode Bit 1
                                 
                                 
                                 
                                 ; ***** LOCKSBITS ********************************************************
                                 .equ	LB1	= 0	; Lock bit
                                 .equ	LB2	= 1	; Lock bit
                                 .equ	BLB01	= 2	; Boot Lock bit
                                 .equ	BLB02	= 3	; Boot Lock bit
                                 .equ	BLB11	= 4	; Boot lock bit
                                 .equ	BLB12	= 5	; Boot lock bit
                                 
                                 
                                 ; ***** FUSES ************************************************************
                                 ; LOW fuse bits
                                 .equ	CKSEL0	= 0	; Select Clock Source
                                 .equ	CKSEL1	= 1	; Select Clock Source
                                 .equ	CKSEL2	= 2	; Select Clock Source
                                 .equ	CKSEL3	= 3	; Select Clock Source
                                 .equ	SUT0	= 4	; Select start-up time
                                 .equ	SUT1	= 5	; Select start-up time
                                 .equ	CKOUT	= 6	; Clock output
                                 .equ	CKDIV8	= 7	; Divide clock by 8
                                 
                                 ; HIGH fuse bits
                                 .equ	BOOTRST	= 0	; Select reset vector
                                 .equ	BOOTSZ0	= 1	; Select boot size
                                 .equ	BOOTSZ1	= 2	; Select boot size
                                 .equ	EESAVE	= 3	; EEPROM memory is preserved through chip erase
                                 .equ	WDTON	= 4	; Watchdog Timer Always On
                                 .equ	SPIEN	= 5	; Enable Serial programming and Data Downloading
                                 .equ	DWEN	= 6	; debugWIRE Enable
                                 .equ	RSTDISBL	= 7	; External reset disable
                                 
                                 ; EXTENDED fuse bits
                                 .equ	BODLEVEL0	= 0	; Brown-out Detector trigger level
                                 .equ	BODLEVEL1	= 1	; Brown-out Detector trigger level
                                 .equ	BODLEVEL2	= 2	; Brown-out Detector trigger level
                                 
                                 
                                 
                                 ; ***** CPU REGISTER DEFINITIONS *****************************************
                                 .def	XH	= r27
                                 .def	XL	= r26
                                 .def	YH	= r29
                                 .def	YL	= r28
                                 .def	ZH	= r31
                                 .def	ZL	= r30
                                 
                                 
                                 
                                 ; ***** DATA MEMORY DECLARATIONS *****************************************
                                 .equ	FLASHEND	= 0x3fff	; Note: Word address
                                 .equ	IOEND	= 0x00ff
                                 .equ	SRAM_START	= 0x0100
                                 .equ	SRAM_SIZE	= 2048
                                 .equ	RAMEND	= 0x08ff
                                 .equ	XRAMEND	= 0x0000
                                 .equ	E2END	= 0x03ff
                                 .equ	EEPROMEND	= 0x03ff
                                 .equ	EEADRBITS	= 10
                                 #pragma AVRPART MEMORY PROG_FLASH 32768
                                 #pragma AVRPART MEMORY EEPROM 1024
                                 #pragma AVRPART MEMORY INT_SRAM SIZE 2048
                                 #pragma AVRPART MEMORY INT_SRAM START_ADDR 0x100
                                 
                                 
                                 
                                 ; ***** BOOTLOADER DECLARATIONS ******************************************
                                 .equ	NRWW_START_ADDR	= 0x3800
                                 .equ	NRWW_STOP_ADDR	= 0x3fff
                                 .equ	RWW_START_ADDR	= 0x0
                                 .equ	RWW_STOP_ADDR	= 0x37ff
                                 .equ	PAGESIZE	= 64
                                 .equ	FIRSTBOOTSTART	= 0x3f00
                                 .equ	SECONDBOOTSTART	= 0x3e00
                                 .equ	THIRDBOOTSTART	= 0x3c00
                                 .equ	FOURTHBOOTSTART	= 0x3800
                                 .equ	SMALLBOOTSTART	= FIRSTBOOTSTART
                                 .equ	LARGEBOOTSTART	= FOURTHBOOTSTART
                                 
                                 
                                 
                                 ; ***** INTERRUPT VECTORS ************************************************
                                 .equ	INT0addr	= 0x0002	; External Interrupt Request 0
                                 .equ	INT1addr	= 0x0004	; External Interrupt Request 1
                                 .equ	PCI0addr	= 0x0006	; Pin Change Interrupt Request 0
                                 .equ	PCI1addr	= 0x0008	; Pin Change Interrupt Request 0
                                 .equ	PCI2addr	= 0x000a	; Pin Change Interrupt Request 1
                                 .equ	WDTaddr	= 0x000c	; Watchdog Time-out Interrupt
                                 .equ	OC2Aaddr	= 0x000e	; Timer/Counter2 Compare Match A
                                 .equ	OC2Baddr	= 0x0010	; Timer/Counter2 Compare Match A
                                 .equ	OVF2addr	= 0x0012	; Timer/Counter2 Overflow
                                 .equ	ICP1addr	= 0x0014	; Timer/Counter1 Capture Event
                                 .equ	OC1Aaddr	= 0x0016	; Timer/Counter1 Compare Match A
                                 .equ	OC1Baddr	= 0x0018	; Timer/Counter1 Compare Match B
                                 .equ	OVF1addr	= 0x001a	; Timer/Counter1 Overflow
                                 .equ	OC0Aaddr	= 0x001c	; TimerCounter0 Compare Match A
                                 .equ	OC0Baddr	= 0x001e	; TimerCounter0 Compare Match B
                                 .equ	OVF0addr	= 0x0020	; Timer/Couner0 Overflow
                                 .equ	SPIaddr	= 0x0022	; SPI Serial Transfer Complete
                                 .equ	URXCaddr	= 0x0024	; USART Rx Complete
                                 .equ	UDREaddr	= 0x0026	; USART, Data Register Empty
                                 .equ	UTXCaddr	= 0x0028	; USART Tx Complete
                                 .equ	ADCCaddr	= 0x002a	; ADC Conversion Complete
                                 .equ	ERDYaddr	= 0x002c	; EEPROM Ready
                                 .equ	ACIaddr	= 0x002e	; Analog Comparator
                                 .equ	TWIaddr	= 0x0030	; Two-wire Serial Interface
                                 .equ	SPMRaddr	= 0x0032	; Store Program Memory Read
                                 
                                 .equ	INT_VECTORS_SIZE	= 52	; size in words
                                 
                                 #endif  /* _M328PDEF_INC_ */
                                 
                                 ; ***** END OF FILE ******************************************************
                                 
                                 ; Proyecto1_reloj.asm
                                 ;
                                 ; Created: 3/03/2025 16:51:29
                                 ; Author : Bryan Samuel Morales Paredes
                                 
                                 ; El programa funciona como un reloj en donde por modos se puede seleccionar si se desea ver la hora
                                 ; fecha, alarma o modificar alguno de estos 
                                 
                                 //============================================================== LABORATORIO 3 ===============================================================
                                 .include "M328PDEF.inc"  
                                 
                                 ;***** Created: 2011-02-09 12:03 ******* Source: ATmega328P.xml **********
                                 ;*************************************************************************
                                 ;* A P P L I C A T I O N   N O T E   F O R   T H E   A V R   F A M I L Y
                                 ;* 
                                 ;* Number            : AVR000
                                 ;* File Name         : "m328Pdef.inc"
                                 ;* Title             : Register/Bit Definitions for the ATmega328P
                                 ;* Date              : 2011-02-09
                                 ;* Version           : 2.35
                                 ;* Support E-mail    : avr@atmel.com
                                 ;* Target MCU        : ATmega328P
                                 ;* 
                                 ;* DESCRIPTION
                                 ;* When including this file in the assembly program file, all I/O register 
                                 ;* names and I/O register bit names appearing in the data book can be used.
                                 ;* In addition, the six registers forming the three data pointers X, Y and 
                                 ;* Z have been assigned names XL - ZH. Highest RAM address for Internal 
                                 ;* SRAM is also defined 
                                 ;* 
                                 ;* The Register names are represented by their hexadecimal address.
                                 ;* 
                                 ;* The Register Bit names are represented by their bit number (0-7).
                                 ;* 
                                 ;* Please observe the difference in using the bit names with instructions
                                 ;* such as "sbr"/"cbr" (set/clear bit in register) and "sbrs"/"sbrc"
                                 ;* (skip if bit in register set/cleared). The following example illustrates
                                 ;* this:
                                 ;* 
                                 ;* in    r16,PORTB             ;read PORTB latch
                                 ;* sbr   r16,(1<<PB6)+(1<<PB5) ;set PB6 and PB5 (use masks, not bit#)
                                 ;* out   PORTB,r16             ;output to PORTB
                                 ;* 
                                 ;* in    r16,TIFR              ;read the Timer Interrupt Flag Register
                                 ;* sbrc  r16,TOV0              ;test the overflow flag (use bit#)
                                 ;* rjmp  TOV0_is_set           ;jump if set
                                 ;* ...                         ;otherwise do something else
                                 ;*************************************************************************
                                 
                                 #ifndef _M328PDEF_INC_
                                 #endif  /* _M328PDEF_INC_ */
                                 
                                 ; ***** END OF FILE ******************************************************
                                 .equ	T2VALOR			= 100
                                 .equ	T1VALOR			= 0x1B1E 
                                 .equ	T0VALOR			= 251
                                 .equ	MODO_CANT		= 9
                                 
                                 .def	MODO			= R20
                                 .def	CONTADOR		= R21
                                 .def	ACTION			= R22
                                 .def	ACTION_DIS		= R23
                                 
                                 .def	UNI_MIN			= R3
                                 .def	DEC_MIN			= R4
                                 .def	UNI_HORA		= R5
                                 .def	DEC_HORA		= R6
                                 
                                 .def	UNI_DIA			= R7
                                 .def	DEC_DIA			= R8
                                 .def	UNI_MES			= R9
                                 .def	DEC_MES			= R10
                                 
                                 .def	UNI_MIN_ALARM	= R11
                                 .def	DEC_MIN_ALARM	= R12
                                 .def	UNI_HORA_ALARM	= R13
                                 .def	DEC_HORA_ALARM	= R14
                                 
                                 
                                 .cseg
                                 .org	0x0000
000000 940c 0022                 	JMP	START
                                 	
                                 .org	PCI0addr
000006 940c 029d                 	JMP	ISR_BOTON
                                 
                                 .org	OVF2addr
000012 940c 040b                 	JMP	ISR_TIMER2
                                 	
                                 .org	OVF1addr
00001a 940c 0383                 	JMP	ISR_TIMER1
                                 
                                 .org	OVF0addr
000020 940c 02e1                 	JMP	ISR_TIMER0
                                 	
                                 //==============================================================================
                                 START:
                                 //Configuracin de la pila
000022 ef0f                      	LDI		R16, LOW(RAMEND)
000023 bf0d                      	OUT		SPL, R16		// SPL 
000024 e008                      	LDI		R16, HIGH(RAMEND)
000025 bf0e                      	OUT		SPH, R16		// SPH 
                                 
                                 //=================================================================================
                                 //Configurar el microcontrolador (MCU)
                                 SETUP:
000026 94f8                      	CLI					//Deshabilito interrupciones globales
                                 
000027 e000                      	LDI		R16, 0x00
000028 9300 00c1                 	STS		UCSR0B, R16			// Desabilito el serial
                                 	
                                 	//Prescaler del oscilador CPU
00002a e800                      	LDI		R16, (1 << CLKPCE)	//Habilita la escritura en CLKPR
00002b 9300 0061                 	STS		CLKPR, R16
00002d e004                      	LDI		R16, (1 << CLKPS2)	//Configura prescaler a 16 (16 MHz / 16 = 1 MHz)
00002e 9300 0061                 	STS		CLKPR, R16
                                 
                                 	// Inicializar timer0
000030 e005                      	LDI		R16, (1<<CS02) | (1<<CS00)	//Configuracin para el prescaler de 1024 (ver datasheet)
000031 bd05                      	OUT		TCCR0B, R16			// Setear prescaler del TIMER 0 a 1024
000032 ef0b                      	LDI		R16, T0VALOR		//Poner a T0VALOR previamente definido
000033 bd06                      	OUT		TCNT0, R16			// Cargar valor inicial en TCNT0
                                 
                                 	//LDI		R16, (1 << TOV0)
                                 	//OUT		TIFR0, R16			// Limpiar la bandera de desbordamiento
                                 
                                 	//Inicializar timer1
                                 	//LDI		R16, 0x00
                                 	//STS		TCCR1A, R16			// Modo normal
000034 e005                      	LDI		R16, (1<<CS12) | (1<<CS10)
000035 9300 0081                 	STS		TCCR1B, R16
                                 
000037 e10e                      	LDI     R16, LOW(T1VALOR)  // Recarga Timer1
000038 9300 0084                     STS     TCNT1L, R16
00003a e10b                          LDI     R16, HIGH(T1VALOR)
00003b 9300 0085                     STS     TCNT1H, R16
                                 
                                 	//LDI		R16, (1 << TOV1)
                                 	//STS		TIFR1, R16			// Limpiar la bandera de desbordamiento 
                                 
                                 	//Inicializar timer2
00003d e004                      	LDI		R16, (1<<CS22)		// Configurar prescaler en 256
00003e 9300 00b1                 	STS		TCCR2B, R16			// Setear prescaler del TIMER 2 a 256
000040 e604                      	LDI		R16, T2VALOR		// Poner a T2VALOR
000041 9300 00b2                 	STS		TCNT2, R16			// Cargar valor inicial en TCNT2
                                 
                                 	//LDI		R16, (1 << TOV2)
                                 	//STS		TIFR2, R16			// Limpiar el flag de desbordamiento
                                 
                                 	//PORTD y PORTC como salida e inicialmente apagado 
000043 ef0f                      	LDI		R16, 0xFF
000044 b90a                      	OUT		DDRD, R16			//Setear puerto D como salida
000045 b907                      	OUT		DDRC, R16
000046 e000                      	LDI		R16, 0x00
000047 b90b                      	OUT		PORTD, R16			//Apagar puerto D
000048 b908                      	OUT		PORTC, R16
                                 
                                 	//PORTB parcial
                                 	//Como entrada
000049 9820                      	CBI		DDRB, PB0
00004a 9821                      	CBI		DDRB, PB1
00004b 9822                      	CBI		DDRB, PB2
00004c 9a28                      	SBI		PORTB, PB0
00004d 9a29                      	SBI		PORTB, PB1
00004e 9a2a                      	SBI		PORTB, PB2
                                 	//Como salida
00004f 9a23                      	SBI		DDRB, PB3
000050 9a24                      	SBI		DDRB, PB4
000051 9a25                      	SBI		DDRB, PB5
000052 982b                      	CBI		PORTB, PB3
000053 982c                      	CBI		PORTB, PB4
000054 982d                      	CBI		PORTB, PB5
                                 
                                 	//Configuracin del display
000055 487d
000056 6e3e
000057 674b
000058 4c77
000059 6f7f                      	DISPLAY_VAL:	.db		0x7D, 0x48,	0x3E, 0x6E, 0x4B, 0x67, 0x77, 0x4C, 0x7F, 0x6F
                                 	//						 0	    1	  2		3	 4     5	  6     7     8		9
                                 
                                 	//Tabla para tener la cantidad de das en los meses del ao 
00005a 1c1f
00005b 1e1f
00005c 1e1f
00005d 1f1f
00005e 1f1e
00005f 1f1e                      	TABLA_DIAS:		.db		31, 28 , 31, 30, 31, 30, 31, 31, 30, 31, 30, 31
                                 	//				   		1	2    3	 4   5	 6   7   8	 9   10  11  12
                                 
                                 	//Configuracin display para mostrar ON/OFF alarma
000060 7d00
000061 175d                      	ALARMA_LETRA:	.db		0x00, 0x7D, 0x5D, 0x17
                                 	//				   		        O     N     F
                                 
000062 940e 0160                 	CALL SET_INICIO
000064 eaea                      	LDI		ZL, LOW(DISPLAY_VAL <<1)	//Coloca el direccionador indirecto en la posicin inicial
000065 e0f0                      	LDI		ZH, HIGH(DISPLAY_VAL <<1)
                                 
                                 //===================== CONFIGURACIN INTERRUPCIONES =======================
                                 //Para el timer2
000066 e001                      	LDI		R16, (1 << TOIE2)
000067 9300 0070                 	STS		TIMSK2, R16
                                 //Para el timer1
000069 e001                      	LDI		R16, (1 << TOIE1)
00006a 9300 006f                 	STS		TIMSK1, R16
                                 
                                 //Para el timer0
00006c e001                      	LDI		R16, (1 << TOIE0)
00006d 9300 006e                 	STS		TIMSK0, R16
                                 
                                 //Para los botones
00006f e007                      	LDI		R16, (1 << PCINT0) | (1 << PCINT1) | (1 << PCINT2) //Habilito los pines en especfico que causan la interrupcin 
000070 9300 006b                 	STS		PCMSK0, R16
                                 	
000072 e001                      	LDI		R16, (1 << PCIE0)	//Habilito las interrupciones en el PORTB
000073 9300 0068                 	STS		PCICR, R16
                                 
                                 //======================================= DEFINIR Y SETEAR EN 0 ALGUNOS REGISTROS ========================================================
                                 //No usar registro 30 y 31
                                 //No usar R0 y R1
                                 
000075 2744                      	CLR		MODO				//R18
000076 2755                      	CLR		CONTADOR			//R19
000077 2766                      	CLR		ACTION				//R20
                                 
000078 2411                      	CLR		R1
000079 2422                      	CLR		R2
00007a 2433                      	CLR		R3
00007b 2444                      	CLR		R4
00007c 2455                      	CLR		R5
00007d 2466                      	CLR		R6
00007e 2488                      	CLR		R8
00007f e001                      	LDI		R16, 0x01
000080 2e90                      	MOV		R9, R16
000081 2e70                      	MOV		R7, R16
000082 24aa                      	CLR		R10
000083 24bb                      	CLR		R11	
000084 24cc                      	CLR		R12
000085 24dd                      	CLR		R13
000086 24ee                      	CLR		R14
000087 e003                      	LDI		R16, 0x03
000088 2ef0                      	MOV		R15, R16
000089 e013                      	LDI		R17, 0x03
00008a e021                      	LDI		R18, 0x01
00008b 2733                      	CLR		R19
00008c 2744                      	CLR		R20
00008d 2755                      	CLR		R21
00008e 2766                      	CLR		R22
00008f 2777                      	CLR		R23
000090 2788                      	CLR		R24
000091 2799                      	CLR		R25
000092 27aa                      	CLR		R26
000093 27bb                      	CLR		R27
000094 27cc                      	CLR		R28
                                 
000095 2700                      	CLR		R16	
000096 9478                      	SEI
                                 //============================================================================
                                 MAIN:
000097 3040                      	CPI		MODO, 0
000098 f089                      	BREQ	HORA_RJMP
000099 3041                      	CPI		MODO, 1
00009a f081                      	BREQ	FECHA_RJMP
00009b 3042                      	CPI		MODO, 2
00009c f079                      	BREQ	CONF_MIN_RJMP
00009d 3043                      	CPI		MODO, 3
00009e f071                      	BREQ	CONF_HORA_RJMP
00009f 3044                      	CPI		MODO, 4
0000a0 f071                      	BREQ	CONF_MES_RJMP
0000a1 3045                      	CPI		MODO, 5
0000a2 f059                      	BREQ	CONF_DIA_RJMP
0000a3 3046                      	CPI		MODO, 6
0000a4 f059                      	BREQ	CONF_ALARMA_MIN_RJMP
0000a5 3047                      	CPI		MODO, 7
0000a6 f051                      	BREQ	CONF_ALARMA_HORA_RJMP
0000a7 3048                      	CPI		MODO, 8
0000a8 f049                      	BREQ	ON_OFF_RJMP
0000a9 cfed                      	RJMP	MAIN
                                 
                                 HORA_RJMP:
0000aa c008                      	RJMP	HORA
                                 FECHA_RJMP:
0000ab c011                      	RJMP	FECHA
                                 CONF_MIN_RJMP:
0000ac c01a                      	RJMP	CONF_MIN
                                 CONF_HORA_RJMP:
0000ad c02e                      	RJMP	CONF_HORA
                                 CONF_DIA_RJMP:
0000ae c042                      	RJMP	CONF_DIA
                                 CONF_MES_RJMP:
0000af c056                      	RJMP	CONF_MES
                                 CONF_ALARMA_MIN_RJMP:
0000b0 c06a                      	RJMP	CONF_ALARMA_MIN
                                 CONF_ALARMA_HORA_RJMP:
0000b1 c07e                      	RJMP	CONF_ALARMA_HORA
                                 ON_OFF_RJMP:
0000b2 c092                      	RJMP	ON_OFF
                                 //==================================================== RUTINAS DEL MAIN ======================================================================
                                 HORA:
0000b3 e071                      	LDI		ACTION_DIS, 0x01
0000b4 982b                      	CBI		PORTB, PB3			// LEDS que muestran el modo 000
0000b5 982c                      	CBI		PORTB, PB4
0000b6 982d                      	CBI		PORTB, PB5
                                 	//Habilitar interrupciones del timer1
0000b7 e001                      	LDI		R16, (1 << TOIE1)
0000b8 9300 006f                 	STS		TIMSK1, R16
                                 
0000ba 940e 028f                 	CALL	SONAR_ALARMA
                                 
0000bc cfda                      	RJMP	MAIN
                                 //---------------------------------------------------------------------------------------------------------------
                                 FECHA:
0000bd e072                      	LDI		ACTION_DIS, 0x02
0000be 9a2b                      	SBI		PORTB, PB3			// Leds	que muestran el modo 001
0000bf 982c                      	CBI		PORTB, PB4
0000c0 982d                      	CBI		PORTB, PB5
                                 	//Habilitar interrupciones del timer1
0000c1 e001                      	LDI		R16, (1 << TOIE1)
0000c2 9300 006f                 	STS		TIMSK1, R16
                                 
0000c4 940e 028f                 	CALL	SONAR_ALARMA
                                 
0000c6 cfd0                      	RJMP	MAIN
                                 //--------------------------------------------------------------------------------------------------------------
                                 CONF_MIN:
                                 	//Parar interrupcin del timer1
0000c7 2700                      	CLR		R16
0000c8 9300 006f                 	STS		TIMSK1, R16
                                 
0000ca e071                      	LDI		ACTION_DIS, 0x01
0000cb 982b                      	CBI		PORTB, PB3			// LEDS que muestran el modo 010
0000cc 9a2c                      	SBI		PORTB, PB4
0000cd 982d                      	CBI		PORTB, PB5
                                 
0000ce 3061                          CPI     ACTION, 0x01       ; Compara ACTION con 0x01
0000cf f021                          BREQ    DO_SUMA            ; Si ACTION == 0x01, salta a DO_SUMA
0000d0 3062                          CPI     ACTION, 0x02       ; Compara ACTION con 0x02
0000d1 f031                          BREQ    DO_RESTA           ; Si ACTION == 0x02, salta a DO_RESTA
0000d2 2766                          CLR     ACTION             ; Limpia ACTION (opcional, dependiendo de tu lgica)
0000d3 cfc3                          RJMP    MAIN               ; Vuelve al inicio del bucle
                                 
                                 DO_SUMA:
0000d4 940e 0163                     CALL    SUMA_MIN               ; Llama a la subrutina SUMA
0000d6 2766                          CLR     ACTION             ; Limpia ACTION despus de la operacin
0000d7 cfbf                          RJMP    MAIN               ; Vuelve al inicio del bucle
                                 
                                 DO_RESTA:
0000d8 940e 0174                     CALL    RESTA_MIN              ; Llama a la subrutina RESTA
0000da 2766                          CLR     ACTION             ; Limpia ACTION despus de la operacin
0000db cfbb                          RJMP    MAIN               ; Vuelve al inicio del bucle
                                 //-----------------------------------------------------------------------------------------------------------
                                 CONF_HORA:
                                 	//Parar interrupcin del timer1
0000dc 2700                      	CLR		R16
0000dd 9300 006f                 	STS		TIMSK1, R16
                                 
0000df e071                      	LDI		ACTION_DIS, 0x01
0000e0 9a2b                      	SBI		PORTB, PB3			// LEDS que muestran el modo 011
0000e1 9a2c                      	SBI		PORTB, PB4
0000e2 982d                      	CBI		PORTB, PB5
                                 	
0000e3 3061                      	CPI     ACTION, 0x01       ; Compara ACTION con 0x01
0000e4 f021                          BREQ    DO_SUMA_HORA           ; Si ACTION == 0x01, salta a DO_SUMA
0000e5 3062                          CPI     ACTION, 0x02       ; Compara ACTION con 0x02
0000e6 f031                          BREQ    DO_RESTA_HORA           ; Si ACTION == 0x02, salta a DO_RESTA
0000e7 2766                          CLR     ACTION             ; Limpia ACTION (opcional, dependiendo de tu lgica)
0000e8 cfae                          RJMP    MAIN               ; Vuelve al inicio del bucle
                                 
                                 DO_SUMA_HORA:
0000e9 940e 0185                     CALL    SUMA_HORA               ; Llama a la subrutina SUMA
0000eb 2766                          CLR     ACTION             ; Limpia ACTION despus de la operacin
0000ec cfaa                          RJMP    MAIN               ; Vuelve al inicio del bucle
                                 
                                 DO_RESTA_HORA:
0000ed 940e 019f                     CALL    RESTA_HORA              ; Llama a la subrutina RESTA
0000ef 2766                          CLR     ACTION             ; Limpia ACTION despus de la operacin
0000f0 cfa6                          RJMP    MAIN               ; Vuelve al inicio del bucle
                                 //-------------------------------------------------------------------------------------------------------------
                                 CONF_DIA:
0000f1 e072                      	LDI		ACTION_DIS, 0x02
0000f2 982b                      	CBI		PORTB, PB3			// LEDS que muestran el modo 100
0000f3 982c                      	CBI		PORTB, PB4
0000f4 9a2d                      	SBI		PORTB, PB5
                                 
                                 	//Parar interrupcin del timer1
0000f5 2700                      	CLR		R16
0000f6 9300 006f                 	STS		TIMSK1, R16
                                 	
0000f8 3061                      	CPI     ACTION, 0x01       ; Compara ACTION con 0x01
0000f9 f021                          BREQ    DO_SUMA_DIA           ; Si ACTION == 0x01, salta a DO_SUMA
0000fa 3062                          CPI     ACTION, 0x02       ; Compara ACTION con 0x02
0000fb f031                          BREQ    DO_RESTA_DIA           ; Si ACTION == 0x02, salta a DO_RESTA
0000fc 2766                          CLR     ACTION             ; Limpia ACTION (opcional, dependiendo de tu lgica)
0000fd cf99                          RJMP    MAIN               ; Vuelve al inicio del bucle
                                 
                                 DO_SUMA_DIA:
0000fe 940e 01b2                     CALL    SUMA_DIA               ; Llama a la subrutina SUMA
000100 2766                          CLR     ACTION             ; Limpia ACTION despus de la operacin
000101 cf95                          RJMP    MAIN               ; Vuelve al inicio del bucle
                                 
                                 DO_RESTA_DIA:
000102 940e 01d1                     CALL    RESTA_DIA              ; Llama a la subrutina RESTA
000104 2766                          CLR     ACTION             ; Limpia ACTION despus de la operacin
000105 cf91                          RJMP    MAIN               ; Vuelve al inicio del bucle
                                 
                                 //--------------------------------------------------------------------------------------------------------------
                                 CONF_MES:
000106 e072                      	LDI		ACTION_DIS, 0x02
000107 9a2b                      	SBI		PORTB, PB3			// LEDS que muestran el modo 101
000108 982c                      	CBI		PORTB, PB4
000109 9a2d                      	SBI		PORTB, PB5
                                 
                                 	//Parar interrupcin del timer1
00010a 2700                      	CLR		R16
00010b 9300 006f                 	STS		TIMSK1, R16
                                 	
00010d 3061                      	CPI     ACTION, 0x01       ; Compara ACTION con 0x01
00010e f021                          BREQ    DO_SUMA_MES           ; Si ACTION == 0x01, salta a DO_SUMA
00010f 3062                          CPI     ACTION, 0x02       ; Compara ACTION con 0x02
000110 f031                          BREQ    DO_RESTA_MES           ; Si ACTION == 0x02, salta a DO_RESTA
000111 2766                          CLR     ACTION             ; Limpia ACTION (opcional, dependiendo de tu lgica)
000112 cf84                          RJMP    MAIN               ; Vuelve al inicio del bucle
                                 
                                 DO_SUMA_MES:
000113 940e 0202                     CALL    SUMA_MES               ; Llama a la subrutina SUMA
000115 2766                          CLR     ACTION             ; Limpia ACTION despus de la operacin
000116 cf80                          RJMP    MAIN               ; Vuelve al inicio del bucle
                                 
                                 DO_RESTA_MES:
000117 940e 0227                     CALL    RESTA_MES              ; Llama a la subrutina RESTA
000119 2766                          CLR     ACTION             ; Limpia ACTION despus de la operacin
00011a cf7c                          RJMP    MAIN               ; Vuelve al inicio del bucle
                                 //-------------------------------------------------------------------------------------------------------------------
                                 CONF_ALARMA_MIN:
00011b e073                      	LDI		ACTION_DIS, 0x03
00011c 982b                      	CBI		PORTB, PB3			// LEDS que muestran el modo 110
00011d 9a2c                      	SBI		PORTB, PB4
00011e 9a2d                      	SBI		PORTB, PB5
                                 
                                 
                                 	//Parar interrupcin del timer1
00011f 2700                      	CLR		R16
000120 9300 006f                 	STS		TIMSK1, R16
                                 
000122 3061                          CPI     ACTION, 0x01       ; Compara ACTION con 0x01
000123 f021                          BREQ    DO_SUMA_MIN_ALARMA            ; Si ACTION == 0x01, salta a DO_SUMA
000124 3062                          CPI     ACTION, 0x02       ; Compara ACTION con 0x02
000125 f031                          BREQ    DO_RESTA_MIN_ALARMA           ; Si ACTION == 0x02, salta a DO_RESTA
000126 2766                          CLR     ACTION             ; Limpia ACTION (opcional, dependiendo de tu lgica)
000127 cf6f                          RJMP    MAIN               ; Vuelve al inicio del bucle
                                 
                                 DO_SUMA_MIN_ALARMA:
000128 940e 0240                     CALL    SUMA_MIN_ALARMA               ; Llama a la subrutina SUMA
00012a 2766                          CLR     ACTION             ; Limpia ACTION despus de la operacin
00012b cf6b                          RJMP    MAIN               ; Vuelve al inicio del bucle
                                 
                                 DO_RESTA_MIN_ALARMA:
00012c 940e 0251                     CALL    RESTA_MIN_ALARMA              ; Llama a la subrutina RESTA
00012e 2766                          CLR     ACTION             ; Limpia ACTION despus de la operacin
00012f cf67                          RJMP    MAIN               ; Vuelve al inicio del bucle
                                 
                                 //-------------------------------------------------------------------------------------------------------------------
                                 CONF_ALARMA_HORA:
000130 e073                      	LDI		ACTION_DIS, 0x03
000131 9a2b                      	SBI		PORTB, PB3			// LEDS que muestran el modo 111
000132 9a2c                      	SBI		PORTB, PB4
000133 9a2d                      	SBI		PORTB, PB5
                                 
                                 	//Parar interrupcin del timer1
000134 2700                      	CLR		R16
000135 9300 006f                 	STS		TIMSK1, R16
                                 
000137 3061                          CPI     ACTION, 0x01       ; Compara ACTION con 0x01
000138 f021                          BREQ    DO_SUMA_HORA_ALARMA            ; Si ACTION == 0x01, salta a DO_SUMA
000139 3062                          CPI     ACTION, 0x02       ; Compara ACTION con 0x02
00013a f031                          BREQ    DO_RESTA_HORA_ALARMA           ; Si ACTION == 0x02, salta a DO_RESTA
00013b 2766                          CLR     ACTION             ; Limpia ACTION (opcional, dependiendo de tu lgica)
00013c cf5a                          RJMP    MAIN               ; Vuelve al inicio del bucle
                                 
                                 DO_SUMA_HORA_ALARMA:
00013d 940e 0262                     CALL    SUMA_HORA_ALARMA               ; Llama a la subrutina SUMA
00013f 2766                          CLR     ACTION             ; Limpia ACTION despus de la operacin
000140 cf56                          RJMP    MAIN               ; Vuelve al inicio del bucle
                                 
                                 DO_RESTA_HORA_ALARMA:
000141 940e 027c                     CALL    RESTA_HORA_ALARMA              ; Llama a la subrutina RESTA
000143 2766                          CLR     ACTION             ; Limpia ACTION despus de la operacin
000144 cf52                          RJMP    MAIN               ; Vuelve al inicio del bucle
                                 
                                 //---------------------------------------------------------------------------------------------------------------------
                                 ON_OFF:
000145 e074                      	LDI		ACTION_DIS, 0x04
                                 	
                                 	//Parar interrupcin del timer1
000146 2700                      	CLR		R16
000147 9300 006f                 	STS		TIMSK1, R16
                                 
000149 3061                          CPI     ACTION, 0x01       ; Compara ACTION con 0x01
00014a f021                          BREQ    DO_ON            ; Si ACTION == 0x01, salta a DO_SUMA
00014b 3062                          CPI     ACTION, 0x02       ; Compara ACTION con 0x02
00014c f051                          BREQ    DO_OFF           ; Si ACTION == 0x02, salta a DO_RESTA
00014d 2766                          CLR     ACTION             ; Limpia ACTION (opcional, dependiendo de tu lgica)
00014e cf48                          RJMP    MAIN               ; Vuelve al inicio del bucle
                                 
                                 DO_ON:
00014f e031                      	LDI		R19, 0x01			//Activo la bandera de accin para que suene la alarma
000150 24ff                      	CLR		R15					// Coloco el valor correspondiente para que su muestre "nada"
000151 e012                      	LDI		R17, 0x02			// Coloco el valor correspondiente para que se muestre "N"
000152 e021                      	LDI		R18, 0x01			// Coloco el valor correspondiente para que se muestre "O"
000153 940e 028f                     CALL    SONAR_ALARMA               ; Llama a la subrutina SUMA
000155 2766                          CLR     ACTION             ; Limpia ACTION despus de la operacin
000156 cf40                          RJMP    MAIN               ; Vuelve al inicio del bucle
                                 
                                 DO_OFF:
000157 e030                      	LDI		R19, 0x00
000158 e003                      	LDI		R16, 0x03
000159 2ef0                      	MOV		R15, R16			// Coloco el valor correspondiente para que su muestre "F"
00015a e013                      	LDI		R17, 0x03			// Coloco el valor correspondiente para que se muestre "F"
00015b e021                      	LDI		R18, 0x01			// Coloco el valor correspondiente para que se muestre "O"
00015c 940e 028f                     CALL    SONAR_ALARMA              ; Llama a la subrutina RESTA
00015e 2766                          CLR     ACTION             ; Limpia ACTION despus de la operacin
00015f cf37                          RJMP    MAIN               ; Vuelve al inicio del bucle
                                 
                                 
                                 //========================================================================== RUTINAS NO INTERRUPCIN ====================================================================================
                                 SET_INICIO:
000160 eaea                      	LDI		ZL, LOW(DISPLAY_VAL <<1)	//Coloca el direccionador indirecto en la posicin inicial
000161 e0f0                      	LDI		ZH, HIGH(DISPLAY_VAL <<1)
000162 9508                      	RET
                                 
                                 //++++++++++++++++++++++++++++++++++++++++++++++++++++++++++++++++++++++++++++++++++++++++++++++++++++++++++++++++++++++++++
                                 SUMA_MIN:
                                     ; Incrementa las unidades de minutos (R3)
000163 2d03                          MOV     R16, R3            ; Carga R3 en R16
000164 9503                          INC     R16                ; Incrementa R16
000165 300a                          CPI     R16, 10            ; Compara R16 con 10
000166 f449                          BRNE    UPDATE_SUM_UNI_MIN_ALARMA ; Si R16 != 10, salta a UPDATE_SUM_UNI_MIN
                                 
                                     ; Si R16 == 10, reinicia las unidades de minutos e incrementa las decenas
000167 2700                          CLR     R16                ; Reinicia R16 a 0
000168 2e30                          MOV     R3, R16            ; Guarda 0 en R3 (unidades de minutos)
000169 2d04                          MOV     R16, R4            ; Carga R4 en R16
00016a 9503                          INC     R16                ; Incrementa R16 (decenas de minutos)
00016b 3006                          CPI     R16, 6             ; Compara R16 con 6
00016c f429                          BRNE    UPDATE_SUM_DEC_MIN_ALARMA ; Si R16 != 6, salta a UPDATE_SUM_DEC_MIN
                                 
                                     ; Si R16 == 6, reinicia las decenas de minutos
00016d 2700                          CLR     R16                ; Reinicia R16 a 0
00016e 2e40                          MOV     R4, R16            ; Guarda 0 en R4 (decenas de minutos)
00016f 9508                          RET                        ; Retorna de la subrutina
                                 
                                 UPDATE_SUM_UNI_MIN_ALARMA:
                                     ; Actualiza las unidades de minutos
000170 2e30                          MOV     R3, R16            ; Guarda R16 en R3
000171 9508                          RET                        ; Retorna de la subrutina
                                 
                                 UPDATE_SUM_DEC_MIN_ALARMA:
                                     ; Actualiza las decenas de minutos
000172 2e40                          MOV     R4, R16            ; Guarda R16 en R4
000173 9508                          RET                        ; Retorna de la subrutina
                                 //+++++++++++++++++++++++++++++++++++++++++++++++++++++++++++++++++++++++++++++++++++++++++++++++++++++++++++++++++++++++++
                                 RESTA_MIN:
                                     ; Resta las unidades de minutos (R3)
000174 2d03                          MOV     R16, R3            ; Carga R3 en R16
000175 950a                          DEC     R16                ; Decrementa R16
000176 3f0f                          CPI     R16, 0xFF          ; Compara R16 con -1 (0xFF en complemento a 2)
000177 f449                          BRNE    UPDATE_RES_UNI_MIN  ; Si R16 != -1, salta a UPDATE_RES_UNI_MIN
                                 
                                     ; Si R16 == -1, ajusta las unidades a 9 y decrementa las decenas
000178 e009                          LDI     R16, 9             ; Carga 9 en R16 (unidades de minutos)
000179 2e30                          MOV     R3, R16            ; Guarda 9 en R3
00017a 2d04                          MOV     R16, R4            ; Carga R4 en R16
00017b 950a                          DEC     R16                ; Decrementa R16 (decenas de minutos)
00017c 3f0f                          CPI     R16, 0xFF          ; Compara R16 con -1 (0xFF en complemento a 2)
00017d f429                          BRNE    UPDATE_RES_DEC_MIN  ; Si R16 != -1, salta a UPDATE_RES_DEC_MIN
                                 
                                     ; Si R16 == -1, ajusta las decenas a 5 (para volver a 59)
00017e e005                          LDI     R16, 5             ; Carga 5 en R16 (decenas de minutos)
00017f 2e40                          MOV     R4, R16            ; Guarda 5 en R4
000180 9508                          RET                        ; Retorna de la subrutina
                                 
                                 UPDATE_RES_UNI_MIN:
                                     ; Actualiza las unidades de minutos
000181 2e30                          MOV     R3, R16            ; Guarda R16 en R3
000182 9508                          RET                        ; Retorna de la subrutina
                                 
                                 UPDATE_RES_DEC_MIN:
                                     ; Actualiza las decenas de minutos
000183 2e40                          MOV     R4, R16            ; Guarda R16 en R4
000184 9508                          RET                        ; Retorna de la subrutina
                                 //++++++++++++++++++++++++++++++++++++++++++++++++++++++++++++++++++++++++++++++++++++++++++++++++++++++++++++++++++++++++++++
                                 SUMA_HORA:
                                     ; Incrementa las unidades de hora (R5)
000185 2d06                      	MOV		R16, R6
000186 3002                      	CPI		R16, 2
000187 f429                      	BRNE	CONTINUAR_NORMAL_HORA
                                 
000188 2d05                      	MOV		R16, R5
000189 9503                      	INC		R16
00018a 3004                      	CPI		R16, 4
00018b f479                      	BRNE	UPDATE_SUM_UNI_HORA
00018c c00a                      	RJMP	RESET_HORAS
                                 
                                 CONTINUAR_NORMAL_HORA:
00018d 2d05                          MOV     R16, R5            ; Carga R5 en R16
00018e 9503                          INC     R16                ; Incrementa R16
00018f 300a                          CPI     R16, 10            ; Compara R16 con 10
000190 f451                          BRNE    UPDATE_SUM_UNI_HORA ; Si R16 != 10, salta a UPDATE_SUM_UNI_MIN
                                 
                                     ; Si R16 == 10, reinicia las unidades de minutos e incrementa las decenas
000191 2700                          CLR     R16                ; Reinicia R16 a 0
000192 2e50                          MOV     R5, R16            ; Guarda 0 en R3 (unidades de minutos)
000193 2d06                          MOV     R16, R6            ; Carga R4 en R16
000194 9503                          INC     R16                ; Incrementa R16 (decenas de minutos)
000195 3006                          CPI     R16, 6             ; Compara R16 con 6
000196 f431                          BRNE    UPDATE_SUM_DEC_HORA ; Si R16 != 6, salta a UPDATE_SUM_DEC_MIN
                                 
                                 RESET_HORAS:
                                     ; Si R16 == 6, reinicia las decenas de minutos
000197 2700                          CLR     R16                ; Reinicia R16 a 0
000198 2e60                          MOV     R6, R16            ; Guarda 0 en R4 (decenas de minutos)
000199 2e50                      	MOV		R5, R16
00019a 9508                          RET                        ; Retorna de la subrutina
                                 
                                 UPDATE_SUM_UNI_HORA:
                                     ; Actualiza las unidades de minutos
00019b 2e50                          MOV     R5, R16            ; Guarda R16 en R3
00019c 9508                          RET                        ; Retorna de la subrutina
                                 
                                 UPDATE_SUM_DEC_HORA:
                                     ; Actualiza las decenas de minutos
00019d 2e60                          MOV     R6 , R16            ; Guarda R16 en R4
00019e 9508                          RET                        ; Retorna de la subrutina
                                 //++++++++++++++++++++++++++++++++++++++++++++++++++++++++++++++++++++++++++++++++++++++++++++++++++++++++++++++++++++++++++++
                                 RESTA_HORA:
                                     ; Resta las unidades de minutos (R3)
00019f 2d05                          MOV     R16, R5            ; Carga R3 en R16
0001a0 950a                          DEC     R16                ; Decrementa R16
0001a1 3f0f                          CPI     R16, 0xFF          ; Compara R16 con -1 (0xFF en complemento a 2)
0001a2 f459                          BRNE    UPDATE_RES_UNI_HORA  ; Si R16 != -1, salta a UPDATE_RES_UNI_MIN
                                 
                                     ; Si R16 == -1, ajusta las unidades a 9 y decrementa las decenas
0001a3 e009                          LDI     R16, 9             ; Carga 9 en R16 (unidades de minutos)
0001a4 2e50                          MOV     R5, R16            ; Guarda 9 en R3
0001a5 2d06                          MOV     R16, R6           ; Carga R4 en R16
0001a6 950a                          DEC     R16                ; Decrementa R16 (decenas de minutos)
0001a7 3f0f                          CPI     R16, 0xFF          ; Compara R16 con -1 (0xFF en complemento a 2)
0001a8 f439                          BRNE    UPDATE_RES_DEC_HORA  ; Si R16 != -1, salta a UPDATE_RES_DEC_MIN
                                 
                                 RESET_HORA_DEC:
                                     ; Si R16 == -1, ajusta las decenas a 5 (para volver a 59)
0001a9 e002                          LDI     R16, 2             ; Carga 5 en R16 (decenas de minutos)
0001aa 2e60                          MOV     R6, R16            ; Guarda 5 en R4
0001ab e003                      	LDI		R16, 3
0001ac 2e50                      	MOV		R5, R16
0001ad 9508                          RET                        ; Retorna de la subrutina
                                 
                                 UPDATE_RES_UNI_HORA:
                                     ; Actualiza las unidades de minutos
0001ae 2e50                          MOV     R5, R16            ; Guarda R16 en R3
0001af 9508                          RET                        ; Retorna de la subrutina
                                 
                                 UPDATE_RES_DEC_HORA:
                                     ; Actualiza las decenas de minutos
0001b0 2e60                          MOV     R6, R16            ; Guarda R16 en R4
0001b1 9508                          RET                        ; Retorna de la subrutina
                                 //++++++++++++++++++++++++++++++++++++++++++++++++++++++++++++++++++++++++++++++++++++++++++++++++++++++++++++++++++++++++++++
                                 SUMA_DIA:
                                     ; Calcular el da actual en formato decimal (R24 = R8 * 10 + R7)
0001b2 2d88                          MOV     R24, R8
0001b3 2fb8                          MOV     R27, R24
0001b4 0f88                          LSL     R24          ; R24 = R8 * 2
0001b5 0fbb                          LSL     R27          ; R27 = R8 * 2
0001b6 0fbb                          LSL     R27          ; R27 = R8 * 4
0001b7 0fbb                          LSL     R27          ; R27 = R8 * 8
0001b8 0f8b                          ADD     R24, R27     ; R24 = (R8 * 2) + (R8 * 8) = R8 * 10
0001b9 0d87                          ADD     R24, R7      ; R24 = R8 * 10 + R7
                                 
                                     ; Obtener el nmero de das del mes actual (en decimal)
0001ba ebe4                          LDI     ZL, LOW(TABLA_DIAS << 1)  ; Cargar la direccin baja de la tabla
0001bb e0f0                          LDI     ZH, HIGH(TABLA_DIAS << 1) ; Cargar la direccin alta de la tabla
0001bc 2f09                          MOV     R16, R25                  ; Cargar el mes actual en R16
0001bd 950a                          DEC     R16                       ; Ajustar el ndice (R16 = R25 - 1)
0001be 0fe0                          ADD     ZL, R16                   ; Sumar el ndice del mes a la direccin
0001bf 1df1                          ADC     ZH, R1                    ; Aadir el acarreo si es necesario
0001c0 91b4                          LPM     R27, Z                    ; Cargar el nmero de das del mes en R27 (decimal)
                                 
                                     ; Comparar el da actual con el nmero mximo de das del mes
0001c1 178b                          CP      R24, R27                  ; Comparar R24 con R27
0001c2 f020                          BRLO    CONTINUAR_SUMA_DIA        ; Si R24 < R27, continuar sumando
                                 
                                     ; Si R24 >= R27, reiniciar el da a 1
0001c3 e001                          LDI     R16, 1                    ; Cargar 1 en R16
0001c4 2e70                          MOV     R7, R16                   ; Guardar 1 en R7 (unidades del da)
0001c5 2488                          CLR     R8                        ; Limpiar R8 (decenas del da)
0001c6 9508                          RET                               ; Retornar de la subrutina
                                 
                                 CONTINUAR_SUMA_DIA:
                                     ; Incrementar las unidades del da
0001c7 2d07                          MOV     R16, R7                   ; Cargar R7 en R16
0001c8 9503                          INC     R16                       ; Incrementar R16
0001c9 300a                          CPI     R16, 10                   ; Comparar R16 con 10
0001ca f421                          BRNE    UPDATE_SUM_UNI_DIA        ; Si no es 10, actualizar las unidades
                                 
                                     ; Si las unidades son 10, reiniciar a 0 e incrementar las decenas
0001cb 2700                          CLR     R16                       ; Limpiar R16
0001cc 2e70                          MOV     R7, R16                   ; Guardar 0 en R7 (unidades del da)
0001cd 9483                          INC     R8                        ; Incrementar R8 (decenas del da)
0001ce 9508                          RET                               ; Retornar de la subrutina
                                 
                                 UPDATE_SUM_UNI_DIA:
                                     ; Actualizar las unidades del da
0001cf 2e70                          MOV     R7, R16                   ; Guardar R16 en R7
0001d0 9508                          RET                               ; Retornar de la subrutina
                                 
                                 //++++++++++++++++++++++++++++++++++++++++++++++++++++++++++++++++++++++++++++++++++++++++++++++++++++++++++++++
                                 RESTA_DIA:
                                     ; Calcular el da actual en formato decimal (R24 = R8 * 10 + R7)
0001d1 2d88                          MOV     R24, R8
0001d2 2fb8                          MOV     R27, R24
0001d3 0f88                          LSL     R24          ; R24 = R8 * 2
0001d4 0fbb                          LSL     R27          ; R27 = R8 * 2
0001d5 0fbb                          LSL     R27          ; R27 = R8 * 4
0001d6 0fbb                          LSL     R27          ; R27 = R8 * 8
0001d7 0f8b                          ADD     R24, R27     ; R24 = (R8 * 2) + (R8 * 8) = R8 * 10
0001d8 0d87                          ADD     R24, R7      ; R24 = R8 * 10 + R7
                                 
                                     ; Obtener el nmero de das del mes actual (en decimal)
0001d9 ebe4                          LDI     ZL, LOW(TABLA_DIAS << 1)  ; Cargar la direccin baja de la tabla
0001da e0f0                          LDI     ZH, HIGH(TABLA_DIAS << 1) ; Cargar la direccin alta de la tabla
0001db 2f09                          MOV     R16, R25                  ; Cargar el mes actual en R16
0001dc 950a                          DEC     R16                       ; Ajustar el ndice (R16 = R25 - 1)
0001dd 0fe0                          ADD     ZL, R16                   ; Sumar el ndice del mes a la direccin
0001de 1df1                          ADC     ZH, R1                    ; Aadir el acarreo si es necesario
0001df 91b4                          LPM     R27, Z                    ; Cargar el nmero de das del mes en R27 (decimal)
                                 
                                     ; Verificar si el da actual es 1 (R7 = 1 y R8 = 0)
0001e0 2d07                          MOV     R16, R7                   ; Cargar R7 en R16
0001e1 3001                          CPI     R16, 1                    ; Comparar R16 con 1
0001e2 f429                          BRNE    DECREMENTAR_NORMAL        ; Si R16 no es 1, decrementar normalmente
0001e3 2d08                          MOV     R16, R8                   ; Cargar R8 en R16
0001e4 3000                          CPI     R16, 0                    ; Comparar R16 con 0
0001e5 f411                          BRNE    DECREMENTAR_NORMAL        ; Si R16 no es 0, decrementar normalmente
                                 
                                     ; Si el da actual es 1, ajustar al ltimo da del mes actual (en decimal)
0001e6 2f8b                          MOV     R24, R27                  ; Cargar el nmero de das del mes en R24
0001e7 c00f                          RJMP    CONVERTIR_A_BCD           ; Convertir a BCD y actualizar R7 y R8
                                 
                                 DECREMENTAR_NORMAL:
                                     ; Decrementar las unidades del da
0001e8 2d07                          MOV     R16, R7                   ; Cargar R7 en R16
0001e9 950a                          DEC     R16                       ; Decrementar R16
0001ea 2e70                          MOV     R7, R16                   ; Guardar R16 en R7
0001eb 3f0f                          CPI     R16, 0xFF                 ; Verificar si R16 es -1 (0xFF)
0001ec f4a1                          BRNE    EXIT_RESTA_DIA            ; Si no es -1, salir
                                 
                                     ; Si las unidades son -1, ajustar las decenas y las unidades
0001ed 2d08                          MOV     R16, R8                   ; Cargar R8 en R16
0001ee 950a                          DEC     R16                       ; Decrementar R16
0001ef 2e80                          MOV     R8, R16                   ; Guardar R16 en R8
0001f0 3f0f                          CPI     R16, 0xFF                 ; Verificar si R16 es -1 (0xFF)
0001f1 f411                          BRNE    AJUSTAR_DECENAS           ; Si no es -1, ajustar las decenas
                                 
                                     ; Si las decenas son -1, ajustar al ltimo da del mes actual (en decimal)
0001f2 2f8b                          MOV     R24, R27                  ; Cargar el nmero de das del mes en R24
0001f3 c003                          RJMP    CONVERTIR_A_BCD           ; Convertir a BCD y actualizar R7 y R8
                                 
                                 AJUSTAR_DECENAS:
                                     ; Ajustar las decenas
0001f4 e009                          LDI     R16, 9                    ; Cargar 9 en R16
0001f5 2e70                          MOV     R7, R16                   ; Guardar R16 en R7
0001f6 9508                          RET                               ; Retornar de la subrutina
                                 
                                 CONVERTIR_A_BCD:
                                     ; Convertir el valor decimal de la tabla a BCD
0001f7 2f08                          MOV     R16, R24                  ; Cargar el nmero de das en R16
0001f8 2711                          CLR     R17                       ; Limpiar R17 para las decenas
                                 CONVERTIR_LOOP:
0001f9 300a                          CPI     R16, 10                   ; Comparar con 10
0001fa f018                          BRLO    CONVERSION_COMPLETA       ; Si es menor que 10, la conversin est completa
0001fb 9513                          INC     R17                       ; Incrementar las decenas
0001fc 500a                          SUBI    R16, 10                   ; Restar 10 a las unidades
0001fd cffb                          RJMP    CONVERTIR_LOOP            ; Repetir hasta que R16 < 10
                                 CONVERSION_COMPLETA:
                                     ; R17 = decenas, R16 = unidades (en BCD)
0001fe 2e70                          MOV     R7, R16                   ; Guardar las unidades del da en R7
0001ff 2e81                          MOV     R8, R17                   ; Guardar las decenas del da en R8
000200 9508                          RET                               ; Retornar de la subrutina
                                 
                                 EXIT_RESTA_DIA:
000201 9508                          RET                               ; Retornar de la subrutina
                                 
                                 //+++++++++++++++++++++++++++++++++++++++++++++++++++++++++++++++++++++++++++++++++++++++++++++++++++++++++++++++++
                                 SUMA_MES:
000202 e001                      	LDI		R16, 0x01
000203 2e70                      	MOV		R7, R16
000204 2488                      	CLR		R8
                                 
000205 2d0a                          MOV     R16, R10
000206 3001                          CPI     R16, 1
000207 f429                          BRNE    CONT_NORMAL_MES	
000208 2d09                          MOV     R16, R9
000209 9503                          INC     R16
00020a 3003                          CPI     R16, 3
00020b f431                          BRNE    UPDATE_UNI_MES
00020c c00f                          RJMP    RESET_MES
                                 
                                 CONT_NORMAL_MES:
00020d 2d09                          MOV     R16, R9
00020e 9503                          INC     R16
00020f 300a                          CPI     R16, 10
000210 f409                          BRNE    UPDATE_UNI_MES
000211 2700                          CLR     R16
                                 
                                 UPDATE_UNI_MES:
000212 2e90                          MOV     R9, R16
000213 3000                          CPI     R16, 0
000214 f459                          BRNE    ACTUALIZAR_SUM_MES
000215 2d0a                          MOV     R16, R10
000216 9503                          INC     R16
000217 3002                          CPI     R16, 2
000218 f409                          BRNE    UPDATE_DEC_MES
000219 2700                          CLR     R16
                                 
                                 UPDATE_DEC_MES:
00021a 2ea0                          MOV     R10, R16
00021b c004                          RJMP    ACTUALIZAR_SUM_MES
                                 
                                 RESET_MES:
00021c e001                          LDI     R16, 0x01
00021d 2e90                          MOV     R9, R16
00021e 2700                          CLR     R16
00021f 2ea0                          MOV     R10, R16
                                 
                                 ACTUALIZAR_SUM_MES:
000220 2f09                          MOV     R16, R25
000221 9503                          INC     R16
000222 300d                          CPI     R16, 13
000223 f409                          BRNE    EXIT_SUM_MES
000224 e001                          LDI     R16, 0x01
                                 
                                 EXIT_SUM_MES:
000225 2f90                          MOV     R25, R16
000226 9508                          RET
                                 
                                 //++++++++++++++++++++++++++++++++++++++++++++++++++++++++++++++++++++++++++++++++++++++++++++++++++++++++++++++++++++++
                                 RESTA_MES:
000227 e001                      	LDI		R16, 0x01
000228 2e70                      	MOV		R7, R16
000229 2488                      	CLR		R8
                                 
                                     ; Decrementar el mes
00022a 2f09                          MOV     R16, R25                  ; Cargar el mes actual en R16
00022b 950a                          DEC     R16                       ; Decrementar R16
00022c 3000                          CPI     R16, 0                    ; Verificar si el mes es 0
00022d f411                          BRNE    UPDATE_MES                ; Si no es 0, actualizar el mes
                                 
                                     ; Si el mes es 0, ajustar a 12
00022e e00c                          LDI     R16, 12                   ; Cargar 12 en R16
00022f 2f90                          MOV     R25, R16                  ; Guardar 12 en R25 (mes actual)
                                 
                                 UPDATE_MES:
                                     ; Actualizar el mes
000230 2f90                          MOV     R25, R16                  ; Guardar R16 en R25
                                 
                                     ; Convertir el mes a unidades (R9) y decenas (R10)
000231 24aa                          CLR     R10                       ; Limpiar R10 (decenas)
000232 2499                          CLR     R9                        ; Limpiar R9 (unidades)
                                 
                                 CONVERTIR_MES_A_BCD:
000233 300a                          CPI     R16, 10                   ; Comparar con 10
000234 f018                          BRLO    CONVERSION_COMPLETA_MES   ; Si es menor que 10, la conversin est completa
000235 94a3                          INC     R10                       ; Incrementar las decenas
000236 500a                          SUBI    R16, 10                   ; Restar 10 a las unidades
000237 cffb                          RJMP    CONVERTIR_MES_A_BCD       ; Repetir hasta que R16 < 10
                                 
                                 CONVERSION_COMPLETA_MES:
                                     ; Guardar las unidades en R9
000238 2e90                          MOV     R9, R16                   ; Guardar R16 en R9 (unidades)
                                 
                                     ; Verificar si el mes es 12
000239 309c                          CPI     R25, 12                   ; Comparar R25 con 12
00023a f421                          BRNE    EXIT_RESTA_MES            ; Si no es 12, salir
                                 
                                     ; Si el mes es 12, ajustar R10 y R9
00023b e001                          LDI     R16, 1                    ; Cargar 1 en R16 (decenas)
00023c 2ea0                          MOV     R10, R16                  ; Guardar R16 en R10
00023d e002                          LDI     R16, 2                    ; Cargar 2 en R16 (unidades)
00023e 2e90                          MOV     R9, R16                   ; Guardar R16 en R9
                                 
                                 EXIT_RESTA_MES:
00023f 9508                          RET                               ; Retornar de la subrutina
                                 /*
                                 RESTA_MES:
                                     ; Decrementar el mes
                                     MOV     R16, R25                  ; Cargar el mes actual en R16
                                     DEC     R16                       ; Decrementar R16
                                     CPI     R16, 0                    ; Verificar si el mes es 0
                                     BRNE    UPDATE_MES                ; Si no es 0, actualizar el mes
                                 
                                     ; Si el mes es 0, ajustar a 12
                                     LDI     R16, 12                   ; Cargar 12 en R16
                                     MOV     R25, R16                  ; Guardar 12 en R25 (mes actual)
                                 
                                 UPDATE_MES:
                                     ; Actualizar el mes
                                     MOV     R25, R16                  ; Guardar R16 en R25
                                 
                                     ; Convertir el mes a unidades (R9) y decenas (R10)
                                     CLR     R10                       ; Limpiar R10 (decenas)
                                     CLR     R9                        ; Limpiar R9 (unidades)
                                 
                                 CONVERTIR_MES_A_BCD:
                                     CPI     R16, 10                   ; Comparar con 10
                                     BRLO    CONVERSION_COMPLETA_MES       ; Si es menor que 10, la conversin est completa
                                     INC     R10                       ; Incrementar las decenas
                                     SUBI    R16, 10                   ; Restar 10 a las unidades
                                     RJMP    CONVERTIR_MES_A_BCD       ; Repetir hasta que R16 < 10
                                 
                                 CONVERSION_COMPLETA_MES:
                                     ; Guardar las unidades en R9
                                     MOV     R9, R16                   ; Guardar R16 en R9 (unidades)
                                     RET                               ; Retornar de la subrutina*/
                                 
                                 //++++++++++++++++++++++++++++++++++++++++++++++++++++++++++++++++++++++++++++++++++++++++++++++++++++++++++++++++++++++
                                 SUMA_MIN_ALARMA:
                                     ; Incrementa las unidades de minutos (R3)
000240 2d0b                          MOV     R16, R11            ; Carga R3 en R16
000241 9503                          INC     R16                ; Incrementa R16
000242 300a                          CPI     R16, 10            ; Compara R16 con 10
000243 f449                          BRNE    UPDATE_SUM_UNI_MIN ; Si R16 != 10, salta a UPDATE_SUM_UNI_MIN
                                 
                                     ; Si R16 == 10, reinicia las unidades de minutos e incrementa las decenas
000244 2700                          CLR     R16                ; Reinicia R16 a 0
000245 2eb0                          MOV     R11, R16            ; Guarda 0 en R3 (unidades de minutos)
000246 2d0c                          MOV     R16, R12            ; Carga R4 en R16
000247 9503                          INC     R16                ; Incrementa R16 (decenas de minutos)
000248 3006                          CPI     R16, 6             ; Compara R16 con 6
000249 f429                          BRNE    UPDATE_SUM_DEC_MIN ; Si R16 != 6, salta a UPDATE_SUM_DEC_MIN
                                 
                                     ; Si R16 == 6, reinicia las decenas de minutos
00024a 2700                          CLR     R16                ; Reinicia R16 a 0
00024b 2ec0                          MOV     R12, R16            ; Guarda 0 en R4 (decenas de minutos)
00024c 9508                          RET                        ; Retorna de la subrutina
                                 
                                 UPDATE_SUM_UNI_MIN:
                                     ; Actualiza las unidades de minutos
00024d 2eb0                          MOV     R11, R16            ; Guarda R16 en R3
00024e 9508                          RET                        ; Retorna de la subrutina
                                 
                                 UPDATE_SUM_DEC_MIN:
                                     ; Actualiza las decenas de minutos
00024f 2ec0                          MOV     R12, R16            ; Guarda R16 en R4
000250 9508                          RET                        ; Retorna de la subrutina
                                 //++++++++++++++++++++++++++++++++++++++++++++++++++++++++++++++++++++++++++++++++++++++++++++++++++++++++++++
                                 RESTA_MIN_ALARMA:
                                     ; Resta las unidades de minutos (R3)
000251 2d0b                          MOV     R16, R11            ; Carga R3 en R16
000252 950a                          DEC     R16                ; Decrementa R16
000253 3f0f                          CPI     R16, 0xFF          ; Compara R16 con -1 (0xFF en complemento a 2)
000254 f449                          BRNE    UPDATE_RES_UNI_MIN_ALARMA  ; Si R16 != -1, salta a UPDATE_RES_UNI_MIN
                                 
                                     ; Si R16 == -1, ajusta las unidades a 9 y decrementa las decenas
000255 e009                          LDI     R16, 9             ; Carga 9 en R16 (unidades de minutos)
000256 2eb0                          MOV     R11, R16            ; Guarda 9 en R3
000257 2d0c                          MOV     R16, R12            ; Carga R4 en R16
000258 950a                          DEC     R16                ; Decrementa R16 (decenas de minutos)
000259 3f0f                          CPI     R16, 0xFF          ; Compara R16 con -1 (0xFF en complemento a 2)
00025a f429                          BRNE    UPDATE_RES_DEC_MIN_ALARMA  ; Si R16 != -1, salta a UPDATE_RES_DEC_MIN
                                 
                                     ; Si R16 == -1, ajusta las decenas a 5 (para volver a 59)
00025b e005                          LDI     R16, 5             ; Carga 5 en R16 (decenas de minutos)
00025c 2ec0                          MOV     R12, R16            ; Guarda 5 en R4
00025d 9508                          RET                        ; Retorna de la subrutina
                                 
                                 UPDATE_RES_UNI_MIN_ALARMA:
                                     ; Actualiza las unidades de minutos
00025e 2eb0                          MOV     R11, R16            ; Guarda R16 en R3
00025f 9508                          RET                        ; Retorna de la subrutina
                                 
                                 UPDATE_RES_DEC_MIN_ALARMA:
                                     ; Actualiza las decenas de minutos
000260 2ec0                          MOV     R12, R16            ; Guarda R16 en R4
000261 9508                          RET                        ; Retorna de la subrutina
                                 //+++++++++++++++++++++++++++++++++++++++++++++++++++++++++++++++++++++++++++++++++++++++++++++++++++++++++++++++++++
                                 SUMA_HORA_ALARMA:
                                     ; Incrementa las unidades de hora (R5)
000262 2d0e                      	MOV		R16, R14
000263 3002                      	CPI		R16, 2
000264 f429                      	BRNE	CONTINUAR_NORMAL_HORA_ALARMA
                                 
000265 2d0d                      	MOV		R16, R13
000266 9503                      	INC		R16
000267 3004                      	CPI		R16, 4
000268 f479                      	BRNE	UPDATE_SUM_UNI_HORA_ALARMA
000269 c00a                      	RJMP	RESET_HORAS_ALARMA
                                 
                                 CONTINUAR_NORMAL_HORA_ALARMA:
00026a 2d0d                          MOV     R16, R13            ; Carga R5 en R16
00026b 9503                          INC     R16                ; Incrementa R16
00026c 300a                          CPI     R16, 10            ; Compara R16 con 10
00026d f451                          BRNE    UPDATE_SUM_UNI_HORA_ALARMA ; Si R16 != 10, salta a UPDATE_SUM_UNI_MIN
                                 
                                     ; Si R16 == 10, reinicia las unidades de minutos e incrementa las decenas
00026e 2700                          CLR     R16                ; Reinicia R16 a 0
00026f 2ed0                          MOV     R13, R16            ; Guarda 0 en R3 (unidades de minutos)
000270 2d0e                          MOV     R16, R14            ; Carga R4 en R16
000271 9503                          INC     R16                ; Incrementa R16 (decenas de minutos)
000272 3006                          CPI     R16, 6             ; Compara R16 con 6
000273 f431                          BRNE    UPDATE_SUM_DEC_HORA_ALARMA ; Si R16 != 6, salta a UPDATE_SUM_DEC_MIN
                                 
                                 RESET_HORAS_ALARMA:
                                     ; Si R16 == 6, reinicia las decenas de minutos
000274 2700                          CLR     R16                ; Reinicia R16 a 0
000275 2ee0                          MOV     R14, R16            ; Guarda 0 en R4 (decenas de minutos)
000276 2ed0                      	MOV		R13, R16
000277 9508                          RET                        ; Retorna de la subrutina
                                 
                                 UPDATE_SUM_UNI_HORA_ALARMA:
                                     ; Actualiza las unidades de minutos
000278 2ed0                          MOV     R13, R16            ; Guarda R16 en R3
000279 9508                          RET                        ; Retorna de la subrutina
                                 
                                 UPDATE_SUM_DEC_HORA_ALARMA:
                                     ; Actualiza las decenas de minutos
00027a 2ee0                          MOV     R14 , R16            ; Guarda R16 en R4
00027b 9508                          RET                        ; Retorna de la subrutina
                                 //+++++++++++++++++++++++++++++++++++++++++++++++++++++++++++++++++++++++++++++++++++++++++++++++++++++++++++++++++++++++++++++++++++++++++++++++
                                 RESTA_HORA_ALARMA:
                                     ; Resta las unidades de minutos (R3)
00027c 2d0d                          MOV     R16, R13            ; Carga R3 en R16
00027d 950a                          DEC     R16                ; Decrementa R16
00027e 3f0f                          CPI     R16, 0xFF          ; Compara R16 con -1 (0xFF en complemento a 2)
00027f f459                          BRNE    UPDATE_RES_UNI_HORA_ALARMA  ; Si R16 != -1, salta a UPDATE_RES_UNI_MIN
                                 
                                     ; Si R16 == -1, ajusta las unidades a 9 y decrementa las decenas
000280 e009                          LDI     R16, 9             ; Carga 9 en R16 (unidades de minutos)
000281 2ed0                          MOV     R13, R16            ; Guarda 9 en R3
000282 2d0e                          MOV     R16, R14           ; Carga R4 en R16
000283 950a                          DEC     R16                ; Decrementa R16 (decenas de minutos)
000284 3f0f                          CPI     R16, 0xFF          ; Compara R16 con -1 (0xFF en complemento a 2)
000285 f439                          BRNE    UPDATE_RES_DEC_HORA_ALARMA  ; Si R16 != -1, salta a UPDATE_RES_DEC_MIN
                                 
                                 RESET_HORA_DEC_ALARMA:
                                     ; Si R16 == -1, ajusta las decenas a 5 (para volver a 59)
000286 e002                          LDI     R16, 2             ; Carga 5 en R16 (decenas de minutos)
000287 2ee0                          MOV     R14, R16            ; Guarda 5 en R4
000288 e003                      	LDI		R16, 3
000289 2ed0                      	MOV		R13, R16
00028a 9508                          RET                        ; Retorna de la subrutina
                                 
                                 UPDATE_RES_UNI_HORA_ALARMA:
                                     ; Actualiza las unidades de minutos
00028b 2ed0                          MOV     R13, R16            ; Guarda R16 en R3
00028c 9508                          RET                        ; Retorna de la subrutina
                                 
                                 UPDATE_RES_DEC_HORA_ALARMA:
                                     ; Actualiza las decenas de minutos
00028d 2ee0                          MOV     R14, R16            ; Guarda R16 en R4
00028e 9508                          RET                        ; Retorna de la subrutina
                                 //+++++++++++++++++++++++++++++++++++++++++++++++++++++++++++++++++++++++++++++++++++++++++++++++++++++++++++++++++++++++++++++++++++++++++
                                 SONAR_ALARMA:
00028f 3031                      	CPI		R19, 0x01
000290 f451                      	BRNE	NO_SONAR
000291 143b                      	CP		R3, R11
000292 f441                      	BRNE	NO_SONAR
000293 144c                      	CP		R4, R12
000294 f431                      	BRNE	NO_SONAR
000295 145d                      	CP		R5, R13
000296 f421                      	BRNE	NO_SONAR
000297 146e                      	CP		R6, R14
000298 f411                      	BRNE	NO_SONAR
000299 9a44                      	SBI		PORTC, PC4
00029a c001                      	RJMP	EXIT_ALARMA
                                 NO_SONAR:
00029b 9844                      	CBI		PORTC, PC4
                                 EXIT_ALARMA:
00029c 9508                      	RET
                                 //================================================== RUTINAS DE INTERRUPCIN =====================================================================
                                 ISR_BOTON:
00029d 930f                          PUSH	R16
00029e b70f                          IN		R16, SREG
00029f 930f                          PUSH	R16
                                 
0002a0 9b1a                      	SBIS	PINB, PB2			// Verifica si se presion el botn de modo
0002a1 9543                      	INC		MODO
0002a2 e009                      	LDI		R16, MODO_CANT
0002a3 1740                      	CP		MODO, R16			// Verifica si ya se sobrepas la cantidad de modos
0002a4 f409                      	BRNE	CONTINUAR_BOTON		
0002a5 2744                      	CLR		MODO
                                 
                                 CONTINUAR_BOTON:				//Verifica que modo debe de ejecutarse
0002a6 3040                      	CPI		MODO, 0
0002a7 f081                      	BREQ	MODO0_ISR
0002a8 3041                      	CPI		MODO, 1
0002a9 f079                      	BREQ	MODO1_ISR
0002aa 3042                      	CPI		MODO, 2
0002ab f071                      	BREQ	MODO2_ISR
0002ac 3043                      	CPI		MODO, 3
0002ad f089                      	BREQ	MODO3_ISR
0002ae 3044                      	CPI		MODO, 4
0002af f0a1                      	BREQ	MODO4_ISR
0002b0 3045                      	CPI		MODO, 5
0002b1 f0b9                      	BREQ	MODO5_ISR
0002b2 3046                      	CPI		MODO, 6
0002b3 f0d1                      	BREQ	MODO6_ISR
0002b4 3047                      	CPI		MODO, 7
0002b5 f0e9                      	BREQ	MODO7_ISR
0002b6 3048                      	CPI		MODO, 8
0002b7 f101                      	BREQ	MODO8_ISR
                                 //Comienza verificacin y ejecucin de modos
                                 MODO0_ISR:
0002b8 c024                      	RJMP	EXIT_MODO_ISR
                                 MODO1_ISR:
0002b9 c023                      	RJMP	EXIT_MODO_ISR
                                 MODO2_ISR:
0002ba 9b19                      	SBIS	PINB, PB1
0002bb e061                      	LDI		ACTION, 0x01
0002bc 9b18                      	SBIS	PINB, PB0
0002bd e062                      	LDI		ACTION, 0x02
0002be c01e                      	RJMP	EXIT_MODO_ISR
                                 MODO3_ISR:
0002bf 9b19                      	SBIS	PINB, PB1
0002c0 e061                      	LDI		ACTION, 0x01
0002c1 9b18                      	SBIS	PINB, PB0
0002c2 e062                      	LDI		ACTION, 0x02
0002c3 c019                      	RJMP	EXIT_MODO_ISR
                                 MODO4_ISR:
0002c4 9b19                      	SBIS	PINB, PB1
0002c5 e061                      	LDI		ACTION, 0x01
0002c6 9b18                      	SBIS	PINB, PB0
0002c7 e062                      	LDI		ACTION, 0x02
0002c8 c014                      	RJMP	EXIT_MODO_ISR
                                 MODO5_ISR:
0002c9 9b19                      	SBIS	PINB, PB1
0002ca e061                      	LDI		ACTION, 0x01
0002cb 9b18                      	SBIS	PINB, PB0
0002cc e062                      	LDI		ACTION, 0x02
0002cd c00f                      	RJMP	EXIT_MODO_ISR
                                 MODO6_ISR:
0002ce 9b19                      	SBIS	PINB, PB1
0002cf e061                      	LDI		ACTION, 0x01
0002d0 9b18                      	SBIS	PINB, PB0
0002d1 e062                      	LDI		ACTION, 0x02
0002d2 c00a                      	RJMP	EXIT_MODO_ISR
                                 MODO7_ISR:
0002d3 9b19                      	SBIS	PINB, PB1
0002d4 e061                      	LDI		ACTION, 0x01
0002d5 9b18                      	SBIS	PINB, PB0
0002d6 e062                      	LDI		ACTION, 0x02
0002d7 c005                      	RJMP	EXIT_MODO_ISR
                                 MODO8_ISR:
0002d8 9b19                      	SBIS	PINB, PB1
0002d9 e061                      	LDI		ACTION, 0x01
0002da 9b18                      	SBIS	PINB, PB0
0002db e062                      	LDI		ACTION, 0x02
0002dc c000                      	RJMP	EXIT_MODO_ISR
                                 EXIT_MODO_ISR:
0002dd 910f                          POP		R16
0002de bf0f                          OUT		SREG, R16
0002df 910f                          POP		R16
0002e0 9518                          RETI
                                 //.......................................................................................................................
                                 ISR_TIMER0:
0002e1 930f                      	PUSH	R16
0002e2 b70f                      	IN		R16,  SREG
0002e3 930f                      	PUSH	R16
                                 
0002e4 ef0b                      	LDI		R16, T0VALOR		//Cargar a R16 el valor de T0VALOR definido al inicio
0002e5 bd06                      	OUT		TCNT0, R16			// Cargar valor inicial en TCNT0
                                 
0002e6 9423                      	INC		R2
0002e7 2d02                      	MOV		R16, R2
0002e8 3001                      	CPI		R16, 0x01
0002e9 f041                      	BREQ	DISPLAY1
0002ea 3002                      	CPI		R16, 0x02
0002eb f141                      	BREQ	DISPLAY2
0002ec 3003                      	CPI		R16, 0x03
0002ed f011                      	BREQ	DISPLAY3_RJMP
0002ee 3004                      	CPI		R16, 0x04
0002ef f009                      	BREQ	DISPLAY4_RJMP
                                 
                                 DISPLAY3_RJMP:
0002f0 c045                      	RJMP	DISPLAY3
                                 DISPLAY4_RJMP:
0002f1 c066                      	RJMP	DISPLAY4
                                 //++++++++++++++++++++++++++++++++
                                 DISPLAY1:
0002f2 9840                      	CBI		PORTC, PC0
0002f3 9841                      	CBI		PORTC, PC1
0002f4 9842                      	CBI		PORTC, PC2
                                 
0002f5 b81b                      	OUT		PORTD, R1
                                 //Verificar el modo actual para mostrar hora o fecha
0002f6 3071                      	CPI		ACTION_DIS, 0x01
0002f7 f031                      	BREQ	DISPLAY1_HORA
0002f8 3072                      	CPI		ACTION_DIS, 0x02
0002f9 f031                      	BREQ	DISPLAY1_FECHA
0002fa 3073                      	CPI		ACTION_DIS, 0x03
0002fb f031                      	BREQ	DISPLAY1_ALARMA
0002fc 3074                      	CPI		ACTION_DIS, 0x04
0002fd f069                      	BREQ	DISPLAY1_ALARMA_ON_OFF
                                 DISPLAY1_HORA:
0002fe 2d03                      	MOV		R16, R3
0002ff c003                      	RJMP	FLUJO_DISPLAY1
                                 DISPLAY1_FECHA:
000300 2d07                      	MOV		R16, R7
000301 c001                      	RJMP	FLUJO_DISPLAY1
                                 DISPLAY1_ALARMA:
000302 2d0b                      	MOV		R16, R11
                                 
                                 FLUJO_DISPLAY1:
                                 	//MOV		R16, R3
000303 eaea                      	LDI		ZL, LOW(DISPLAY_VAL <<1)	//Coloca el direccionador indirecto en la posicin inicial
000304 e0f0                      	LDI		ZH, HIGH(DISPLAY_VAL <<1)
000305 0fe0                      	ADD		ZL, R16
000306 1df1                      	ADC		ZH, R1
000307 9104                      	LPM		R16, Z
000308 9a43                      	SBI		PORTC, PC3
000309 b90b                      	OUT		PORTD, R16
00030a c06f                      	RJMP	FIN_TMR0
                                 DISPLAY1_ALARMA_ON_OFF:
00030b 2d0f                      	MOV		R16, R15
00030c ece0                      	LDI		ZL, LOW(ALARMA_LETRA <<1)	//Coloca el direccionador indirecto en la posicin inicial
00030d e0f0                      	LDI		ZH, HIGH(ALARMA_LETRA <<1)
00030e 0fe0                      	ADD		ZL, R16
00030f 1df1                      	ADC		ZH, R1
000310 9104                      	LPM		R16, Z
000311 9a43                      	SBI		PORTC, PC3
000312 b90b                      	OUT		PORTD, R16
000313 c066                      	RJMP	FIN_TMR0
                                 
                                 //+++++++++++++++++++++++++++++++++++++++++++++++++++
                                 DISPLAY2:
000314 9840                      	CBI		PORTC, PC0
000315 9841                      	CBI		PORTC, PC1
000316 9843                      	CBI		PORTC, PC3
                                 
000317 b81b                      	OUT		PORTD, R1
                                 //Verificar el modo actual para mostrar hora o fecha
000318 3071                      	CPI		ACTION_DIS, 0x01
000319 f031                      	BREQ	DISPLAY2_HORA
00031a 3072                      	CPI		ACTION_DIS, 0x02
00031b f031                      	BREQ	DISPLAY2_FECHA
00031c 3073                      	CPI		ACTION_DIS, 0x03
00031d f031                      	BREQ	DISPLAY2_ALARMA
00031e 3074                      	CPI		ACTION_DIS, 0x04
00031f f069                      	BREQ	DISPLAY2_ALARMA_ON_OFF
                                 DISPLAY2_HORA:
000320 2d04                      	MOV		R16, R4
000321 c003                      	RJMP	FLUJO_DISPLAY2
                                 DISPLAY2_FECHA:
000322 2d08                      	MOV		R16, R8
000323 c001                      	RJMP	FLUJO_DISPLAY2
                                 DISPLAY2_ALARMA:
000324 2d0c                      	MOV		R16, R12
                                 
                                 FLUJO_DISPLAY2:
                                 	//MOV		R16, R4
000325 eaea                      	LDI		ZL, LOW(DISPLAY_VAL <<1)	//Coloca el direccionador indirecto en la posicin inicial
000326 e0f0                      	LDI		ZH, HIGH(DISPLAY_VAL <<1)
000327 0fe0                      	ADD		ZL, R16
000328 1df1                      	ADC		ZH, R1
000329 9104                      	LPM		R16, Z
00032a 9a42                      	SBI		PORTC, PC2
00032b b90b                      	OUT		PORTD, R16
                                 
00032c c04d                      	RJMP	FIN_TMR0
                                 DISPLAY2_ALARMA_ON_OFF:
00032d 2f01                      	MOV		R16, R17
00032e ece0                      	LDI		ZL, LOW(ALARMA_LETRA <<1)	//Coloca el direccionador indirecto en la posicin inicial
00032f e0f0                      	LDI		ZH, HIGH(ALARMA_LETRA <<1)
000330 0fe0                      	ADD		ZL, R16
000331 1df1                      	ADC		ZH, R1
000332 9104                      	LPM		R16, Z
000333 9a42                      	SBI		PORTC, PC2
000334 b90b                      	OUT		PORTD, R16
000335 c044                      	RJMP	FIN_TMR0
                                 //+++++++++++++++++++++++++++++++++++++++++++++++
                                 DISPLAY3:
000336 9840                      	CBI		PORTC, PC0
000337 9842                      	CBI		PORTC, PC2
000338 9843                      	CBI		PORTC, PC3
000339 b81b                          OUT     PORTD, R1
                                 
                                 //Verificar el modo actual para mostrar hora o fecha
00033a 3071                      	CPI		ACTION_DIS, 0x01
00033b f031                      	BREQ	DISPLAY3_HORA
00033c 3072                      	CPI		ACTION_DIS, 0x02
00033d f031                      	BREQ	DISPLAY3_FECHA
00033e 3073                      	CPI		ACTION_DIS, 0x03
00033f f031                      	BREQ	DISPLAY3_ALARMA
000340 3074                      	CPI		ACTION_DIS, 0x04
000341 f069                      	BREQ	DISPLAY3_ALARMA_ON_OFF
                                 DISPLAY3_HORA:
000342 2d05                      	MOV		R16, R5
000343 c003                      	RJMP	FLUJO_DISPLAY3
                                 DISPLAY3_FECHA:
000344 2d09                      	MOV		R16, R9
000345 c001                      	RJMP	FLUJO_DISPLAY3
                                 DISPLAY3_ALARMA:
000346 2d0d                      	MOV		R16, R13
                                 
                                 FLUJO_DISPLAY3:
                                     //MOV     R16, R5						// Cargar unidades de hora
000347 eaea                          LDI     ZL, LOW(DISPLAY_VAL <<1)
000348 e0f0                          LDI     ZH, HIGH(DISPLAY_VAL <<1)
000349 0fe0                          ADD     ZL, R16
00034a 1df1                          ADC     ZH, R1
00034b 9104                          LPM     R16, Z
00034c 9a41                      	SBI     PORTC, PC1
00034d b90b                          OUT     PORTD, R16
00034e c02b                          RJMP    FIN_TMR0
                                 
                                 DISPLAY3_ALARMA_ON_OFF:
00034f 2f02                      	MOV		R16, R18
000350 ece0                      	LDI		ZL, LOW(ALARMA_LETRA <<1)	//Coloca el direccionador indirecto en la posicin inicial
000351 e0f0                      	LDI		ZH, HIGH(ALARMA_LETRA <<1)
000352 0fe0                      	ADD		ZL, R16
000353 1df1                      	ADC		ZH, R1
000354 9104                      	LPM		R16, Z
000355 9a41                      	SBI		PORTC, PC1
000356 b90b                      	OUT		PORTD, R16
000357 c022                      	RJMP	FIN_TMR0
                                 //+++++++++++++++++++++++++++++++++++++++++++++++++++++++++++++
                                 DISPLAY4:
000358 9841                      	CBI		PORTC, PC1
000359 9842                      	CBI		PORTC, PC2
00035a 9843                      	CBI		PORTC, PC3
                                 
00035b b81b                          OUT     PORTD, R1
                                 //Verificar el modo actual para mostrar hora o fecha
00035c 3071                      	CPI		ACTION_DIS, 0x01
00035d f031                      	BREQ	DISPLAY4_HORA
00035e 3072                      	CPI		ACTION_DIS, 0x02
00035f f031                      	BREQ	DISPLAY4_FECHA
000360 3073                      	CPI		ACTION_DIS, 0x03
000361 f031                      	BREQ	DISPLAY4_ALARMA
000362 3074                      	CPI		ACTION_DIS, 0x04
000363 f069                      	BREQ	DISPLAY4_ALARMA_ON_OFF
                                 DISPLAY4_HORA:
000364 2d06                      	MOV		R16, R6
000365 c003                      	RJMP	FLUJO_DISPLAY4
                                 DISPLAY4_FECHA:
000366 2d0a                      	MOV		R16, R10
000367 c001                      	RJMP	FLUJO_DISPLAY4
                                 DISPLAY4_ALARMA:
000368 2d0e                      	MOV		R16, R14
                                 
                                 FLUJO_DISPLAY4:
                                    // MOV     R16, R6						// Cargar decenas de hora
000369 eaea                          LDI     ZL, LOW(DISPLAY_VAL <<1)
00036a e0f0                          LDI     ZH, HIGH(DISPLAY_VAL <<1)
00036b 0fe0                          ADD     ZL, R16
00036c 1df1                          ADC     ZH, R1
00036d 9104                          LPM     R16, Z
00036e 9a40                      	SBI     PORTC, PC0
00036f b90b                          OUT     PORTD, R16
                                 
000370 c009                          RJMP    FIN_TMR0
                                 DISPLAY4_ALARMA_ON_OFF:
000371 2d01                      	MOV		R16, R1
000372 ece0                      	LDI		ZL, LOW(ALARMA_LETRA <<1)	//Coloca el direccionador indirecto en la posicin inicial
000373 e0f0                      	LDI		ZH, HIGH(ALARMA_LETRA <<1)
000374 0fe0                      	ADD		ZL, R16
000375 1df1                      	ADC		ZH, R1
000376 9104                      	LPM		R16, Z
000377 9a40                      	SBI		PORTC, PC0
000378 b90b                      	OUT		PORTD, R16
000379 c000                      	RJMP	FIN_TMR0
                                 //++++++++++++++++++++++++++++++++++++++++++++++++++++
                                 FIN_TMR0:
00037a 2d02                      	MOV		R16, R2
00037b 3004                      	CPI		R16, 0x04
00037c f411                      	BRNE	RESET_END_ISR
00037d 2700                      	CLR		R16
00037e 2e20                      	MOV		R2, R16
                                 
                                 RESET_END_ISR:
00037f 910f                      	POP		R16
000380 bf0f                      	OUT		SREG, R16
000381 910f                      	POP		R16
000382 9518                      	RETI
                                 //...........................................................................................................
                                 ISR_TIMER1:
000383 930f                          PUSH    R16
000384 b70f                          IN      R16, SREG
000385 930f                          PUSH    R16
                                 
000386 e10e                          LDI     R16, LOW(T1VALOR)  // Recarga Timer1
000387 9300 0084                     STS     TCNT1L, R16
000389 e10b                          LDI     R16, HIGH(T1VALOR)
00038a 9300 0085                     STS     TCNT1H, R16
                                 
                                     // Incrementar minutos (unidades)
00038c 2d03                          MOV     R16, R3            // Mover unidades de minutos a R16
00038d 9503                          INC     R16                // Incrementar unidades de minutos
00038e 300a                          CPI     R16, 10            // Comparar si unidades de minutos llegan a 10
00038f f409                          BRNE    UPDATE_UNI_MIN     // Si no, actualizar R3 y salir
000390 2700                          CLR     R16                // Si s, resetear unidades de minutos
                                 
                                 UPDATE_UNI_MIN:
000391 2e30                          MOV     R3, R16            // Actualizar R3 con el nuevo valor
                                 
                                     // Verificar si se debe incrementar decenas de minutos
000392 3000                          CPI     R16, 0             // Si unidades de minutos no son 0, no incrementar decenas
000393 f409                          BRNE    SALIR_ISR_1	   // Salir de la interrupcin
000394 c001                      	RJMP	CONTINUAR_UNI_MIN
                                 SALIR_ISR_1:
000395 c071                      	RJMP	EXIT_TMR1_ISR
                                 CONTINUAR_UNI_MIN:
                                     // Incrementar minutos (decenas)
000396 2d04                          MOV     R16, R4			   // Mover decenas de minutos a R16
000397 9503                          INC     R16                // Incrementar decenas de minutos
000398 3006                          CPI     R16, 6             // Comparar si decenas de minutos llegan a 6
000399 f409                          BRNE    UPDATE_DEC_MIN     // Si no, actualizar R4 y salir
00039a 2700                          CLR     R16                // Si s, resetear decenas de minutos
                                 
                                 UPDATE_DEC_MIN:
00039b 2e40                          MOV     R4, R16            // Actualizar R4 con el nuevo valor
                                 
                                     // Verificar si se debe incrementar horas
00039c 3000                          CPI     R16, 0             // Si decenas de minutos no son 0, no incrementar horas
00039d f409                          BRNE    SALIR_ISR_2		// Salir de la interrupcin
00039e c001                      	RJMP	CONTINUAR_DEC_MIN
                                 SALIR_ISR_2:
00039f c067                      	RJMP	EXIT_TMR1_ISR
                                 CONTINUAR_DEC_MIN:
                                     // Incrementar horas (unidades)
0003a0 2d06                      	MOV		R16, R6				// Mover el valor de R6 (decena hora) a R16
0003a1 3002                      	CPI		R16, 2				//Comparar si es 2 y as unidad de hora no cuente hasta 9
0003a2 f429                      	BRNE	CONT_NORMAL			// Si no es igual continuar contando normal de 0 a 9
0003a3 2d05                      	MOV		R16, R5				// Si si, mover R5 (unidad hora) a R16
0003a4 9503                      	INC		R16					// Incrementar R16
0003a5 3004                      	CPI		R16, 4				// Comparar si es igual a 4
0003a6 f431                      	BRNE	UPDATE_UNI_HORA		// Si no es igual saltar a actualizar unidad hora
0003a7 c00d                      	RJMP	RESET_TOTAL			// Si es igual, resetear el contador debido a que lleg a 23:59
                                 	
                                 CONT_NORMAL:	
0003a8 2d05                          MOV     R16, R5            // Mover unidades de horas a R16
0003a9 9503                          INC     R16                // Incrementar unidades de horas
0003aa 300a                          CPI     R16, 10            // Si unidades de horas llegan a 10
0003ab f409                          BRNE    UPDATE_UNI_HORA    // Si no, actualizar R5 y salir
0003ac 2700                          CLR     R16                // Si s, resetear unidades de horas
                                 
                                 UPDATE_UNI_HORA:
0003ad 2e50                          MOV     R5, R16            // Actualizar R5 con el nuevo valor
                                 
                                     // Verificar si se debe incrementar decenas de horas
0003ae 3000                          CPI     R16, 0             // Si unidades de horas no son 0, no incrementar decenas
0003af f409                          BRNE    SALIR_ISR_3
0003b0 c001                      	RJMP	CONTINUAR_UNI_HORA
                                 SALIR_ISR_3:
0003b1 c055                      	RJMP	EXIT_TMR1_ISR
                                 CONTINUAR_UNI_HORA:
                                    // Incrementar horas (decenas)
0003b2 2d06                      	MOV     R16, R6            // Mover decenas de horas a R16
0003b3 3002                      	CPI		R16, 2				// Comparar si es igual a 2
0003b4 f421                      	BRNE	CONTINUAR_DEC_HORA	// Si no es igual ir a actualizar decena hora
                                 
                                 RESET_TOTAL:
0003b5 2466                      	CLR		R6					// Reiniciar R6 (decena hora)
0003b6 2455                      	CLR		R5					// Reiniciar R5 (unidad hora)
0003b7 2700                      	CLR		R16					// Reiniciar registro de propsito general
0003b8 c003                      	RJMP	NUEVO_DIA		// Salir de la interrupcin
                                 
                                 CONTINUAR_DEC_HORA:
0003b9 9503                      	INC		R16					// Incrementar R16
0003ba 2e60                      	MOV		R6, R16				
0003bb c04b                      	RJMP	EXIT_TMR1_ISR
                                 
                                 NUEVO_DIA:
                                     ; Calcular el da actual en formato decimal (R24 = R8 * 10 + R7)
0003bc 2d88                          MOV     R24, R8
0003bd 2fb8                          MOV     R27, R24
0003be 0f88                          LSL     R24          ; R24 = R8 * 2
0003bf 0fbb                          LSL     R27          ; R27 = R8 * 2
0003c0 0fbb                          LSL     R27          ; R27 = R8 * 4
0003c1 0fbb                          LSL     R27          ; R27 = R8 * 8
0003c2 0f8b                          ADD     R24, R27     ; R24 = (R8 * 2) + (R8 * 8) = R8 * 10
0003c3 0d87                          ADD     R24, R7      ; R24 = R8 * 10 + R7
                                 
                                     ; Obtener el nmero de das del mes actual (en decimal)
0003c4 ebe4                          LDI     ZL, LOW(TABLA_DIAS << 1)  ; Cargar la direccin baja de la tabla
0003c5 e0f0                          LDI     ZH, HIGH(TABLA_DIAS << 1) ; Cargar la direccin alta de la tabla
0003c6 2f09                          MOV     R16, R25                  ; Cargar el mes actual en R16
0003c7 950a                          DEC     R16                       ; Ajustar el ndice (R16 = R25 - 1)
0003c8 0fe0                          ADD     ZL, R16                   ; Sumar el ndice del mes a la direccin
0003c9 1df1                          ADC     ZH, R1                    ; Aadir el acarreo si es necesario
0003ca 91b4                          LPM     R27, Z                    ; Cargar el nmero de das del mes en R27 (decimal)
                                 
                                     ; Comparar el da actual con el nmero mximo de das del mes
0003cb 178b                          CP      R24, R27                  ; Comparar R24 con R27
0003cc f180                          BRLO    CONTINUAR_SUMA_DIA_ISR    ; Si R24 < R27, continuar sumando
                                 
                                     ; Si R24 >= R27, reiniciar el da a 1 y sumar un mes
0003cd e001                          LDI     R16, 1                    ; Cargar 1 en R16
0003ce 2e70                          MOV     R7, R16                   ; Guardar 1 en R7 (unidades del da)
0003cf 2488                          CLR     R8                        ; Limpiar R8 (decenas del da)
                                 
                                     ; Verificar si el mes es 12 (diciembre)
0003d0 2f09                          MOV     R16, R25                  ; Cargar el mes actual en R16
0003d1 300c                          CPI     R16, 12                   ; Comparar R16 con 12
0003d2 f429                          BRNE    SUMA_MES_ISR              ; Si no es 12, sumar un mes
                                 
                                     ; Si el mes es 12, reiniciar a 1 de enero
0003d3 e001                          LDI     R16, 1                    ; Cargar 1 en R16
0003d4 2f90                          MOV     R25, R16                  ; Reiniciar el mes a 1
0003d5 2e90                          MOV     R9, R16                   ; Reiniciar R9 (unidades del mes) a 1
0003d6 24aa                          CLR     R10                       ; Reiniciar R10 (decenas del mes) a 0
0003d7 c02f                          RJMP    EXIT_TMR1_ISR             ; Salir de la subrutina
                                 
                                 SUMA_MES_ISR:
0003d8 e001                          LDI     R16, 0x01
0003d9 2e70                          MOV     R7, R16
0003da 2488                          CLR     R8
                                 
0003db 2d0a                          MOV     R16, R10
0003dc 3001                          CPI     R16, 1
0003dd f429                          BRNE    CONT_NORMAL_MES_ISR
0003de 2d09                          MOV     R16, R9
0003df 9503                          INC     R16
0003e0 3003                          CPI     R16, 3
0003e1 f431                          BRNE    UPDATE_UNI_MES_ISR
0003e2 c00f                          RJMP    RESET_MES_ISR
                                 
                                 CONT_NORMAL_MES_ISR:
0003e3 2d09                          MOV     R16, R9
0003e4 9503                          INC     R16
0003e5 300a                          CPI     R16, 10
0003e6 f409                          BRNE    UPDATE_UNI_MES_ISR
0003e7 2700                          CLR     R16
                                 
                                 UPDATE_UNI_MES_ISR:
0003e8 2e90                          MOV     R9, R16
0003e9 3000                          CPI     R16, 0
0003ea f459                          BRNE    ACTUALIZAR_SUM_MES_ISR
0003eb 2d0a                          MOV     R16, R10
0003ec 9503                          INC     R16
0003ed 3002                          CPI     R16, 2
0003ee f409                          BRNE    UPDATE_DEC_MES_ISR
0003ef 2700                          CLR     R16
                                 
                                 UPDATE_DEC_MES_ISR:
0003f0 2ea0                          MOV     R10, R16
0003f1 c004                          RJMP    ACTUALIZAR_SUM_MES_ISR
                                 
                                 RESET_MES_ISR:
0003f2 e001                          LDI     R16, 0x01
0003f3 2e90                          MOV     R9, R16
0003f4 2700                          CLR     R16
0003f5 2ea0                          MOV     R10, R16
                                 
                                 ACTUALIZAR_SUM_MES_ISR:
0003f6 2f09                          MOV     R16, R25
0003f7 9503                          INC     R16
0003f8 300d                          CPI     R16, 13
0003f9 f409                          BRNE    EXIT_SUM_MES_ISR
0003fa e001                          LDI     R16, 0x01
                                 
                                 EXIT_SUM_MES_ISR:
0003fb 2f90                          MOV     R25, R16
0003fc c00a                          RJMP    EXIT_TMR1_ISR
                                 
                                 CONTINUAR_SUMA_DIA_ISR:
                                     ; Incrementar las unidades del da
0003fd 2d07                          MOV     R16, R7                   ; Cargar R7 en R16
0003fe 9503                          INC     R16                       ; Incrementar R16
0003ff 300a                          CPI     R16, 10                   ; Comparar R16 con 10
000400 f421                          BRNE    UPDATE_SUM_UNI_DIA_ISR    ; Si no es 10, actualizar las unidades
                                 
                                     ; Si las unidades son 10, reiniciar a 0 e incrementar las decenas
000401 2700                          CLR     R16                       ; Limpiar R16
000402 2e70                          MOV     R7, R16                   ; Guardar 0 en R7 (unidades del da)
000403 9483                          INC     R8                        ; Incrementar R8 (decenas del da)
000404 c002                          RJMP    EXIT_TMR1_ISR             ; Retornar de la subrutina
                                 
                                 UPDATE_SUM_UNI_DIA_ISR:
                                     ; Actualizar las unidades del da
000405 2e70                          MOV     R7, R16                   ; Guardar R16 en R7
000406 c000                          RJMP    EXIT_TMR1_ISR             ; Retornar de la subrutina
                                 
                                 EXIT_TMR1_ISR:
000407 910f                          POP     R16
000408 bf0f                          OUT     SREG, R16
000409 910f                          POP     R16
00040a 9518                          RETI
                                 //.........................................................................................................
                                 
                                 ISR_TIMER2:
00040b 930f                      	PUSH	R16
00040c b70f                      	IN		R16,  SREG
00040d 930f                      	PUSH	R16
                                 	/*LDI		R16, T2VALOR		// Cargar definido al inicio T2VALOR
                                 	STS		TCNT2, R16			// Cargar valor inicial en TCNT2
                                 	INC		R26
                                 	CPI		R26, 50
                                 	BRNE	FIN_TMR2
                                 	SBI		PINC, PC5
                                 	CLR		R26
                                 FIN_TMR2:*/
00040e 910f                      	POP		R16
00040f bf0f                      	OUT		SREG, R16
000410 910f                      	POP		R16
000411 9518                      	RETI


RESOURCE USE INFORMATION
------------------------

Notice:
The register and instruction counts are symbol table hit counts,
and hence implicitly used resources are not counted, eg, the
'lpm' instruction without operands implicitly uses r0 and z,
none of which are counted.

x,y,z are separate entities in the symbol table and are
counted separately from r26..r31 here.

.dseg memory usage only counts static data declared with .byte

"ATmega328P" register use summary:
x  :   0 y  :   0 z  :  11 r0 :   0 r1 :  17 r2 :   5 r3 :  11 r4 :  11 
r5 :  16 r6 :  14 r7 :  21 r8 :  16 r9 :  14 r10:  14 r11:   9 r12:   9 
r13:  12 r14:  10 r15:   4 r16: 404 r17:   7 r18:   4 r19:   4 r20:  23 
r21:   2 r22:  51 r23:  26 r24:  21 r25:  14 r26:   1 r27:  23 r28:   1 
r29:   0 r30:  24 r31:  24 
Registers used: 31 out of 35 (88.6%)

"ATmega328P" instruction use summary:
.lds  :   0 .sts  :   0 adc   :  11 add   :  17 adiw  :   0 and   :   0 
andi  :   0 asr   :   0 bclr  :   0 bld   :   0 brbc  :   0 brbs  :   0 
brcc  :   0 brcs  :   0 break :   0 breq  :  52 brge  :   0 brhc  :   0 
brhs  :   0 brid  :   0 brie  :   0 brlo  :   4 brlt  :   0 brmi  :   0 
brne  :  57 brpl  :   0 brsh  :   0 brtc  :   0 brts  :   0 brvc  :   0 
brvs  :   0 bset  :   0 bst   :   0 call  :  17 cbi   :  31 cbr   :   0 
clc   :   0 clh   :   0 cli   :   1 cln   :   0 clr   :  88 cls   :   0 
clt   :   0 clv   :   0 clz   :   0 com   :   0 cp    :   7 cpc   :   0 
cpi   : 106 cpse  :   0 dec   :  14 eor   :   0 fmul  :   0 fmuls :   0 
fmulsu:   0 icall :   0 ijmp  :   0 in    :   4 inc   :  31 jmp   :   5 
ld    :   0 ldd   :   0 ldi   : 109 lds   :   0 lpm   :  22 lsl   :  12 
lsr   :   0 mov   : 150 movw  :   0 mul   :   0 muls  :   0 mulsu :   0 
neg   :   0 nop   :   0 or    :   0 ori   :   0 out   :  25 pop   :   8 
push  :   8 rcall :   0 ret   :  34 reti  :   4 rjmp  :  84 rol   :   0 
ror   :   0 sbc   :   0 sbci  :   0 sbi   :  27 sbic  :   0 sbis  :  15 
sbiw  :   0 sbr   :   0 sbrc  :   0 sbrs  :   0 sec   :   0 seh   :   0 
sei   :   1 sen   :   0 ser   :   0 ses   :   0 set   :   0 sev   :   0 
sez   :   0 sleep :   0 spm   :   0 st    :   0 std   :   0 sts   :  24 
sub   :   0 subi  :   2 swap  :   0 tst   :   0 wdr   :   0 
Instructions used: 30 out of 113 (26.5%)

"ATmega328P" memory use summary [bytes]:
Segment   Begin    End      Code   Data   Used    Size   Use%
---------------------------------------------------------------
[.cseg] 0x000000 0x000824   2010     26   2036   32768   6.2%
[.dseg] 0x000100 0x000100      0      0      0    2048   0.0%
[.eseg] 0x000000 0x000000      0      0      0    1024   0.0%

Assembly complete, 0 errors, 0 warnings
